

Microchip MPLAB XC8 Assembler V3.10 build 20250813170317 
                                                                                               Fri Apr 17 15:11:35 2026

Microchip MPLAB XC8 C Compiler v3.10 (Free license) build 20250813170317 Og1 
     1                           	processor	16F877A
     2                           	pagewidth 120
     3                           	opt	flic
     4                           	psect	idataCOMMON,global,class=CODE,space=0,delta=2,noexec
     5                           	psect	idataBANK0,global,class=CODE,space=0,delta=2,noexec
     6                           	psect	idataBANK1,global,class=CODE,space=0,delta=2,noexec
     7                           	psect	strings,global,class=STRING,space=0,delta=2,noexec
     8                           	psect	stringtext,global,reloc=256,class=STRCODE,space=0,delta=2,noexec
     9                           	psect	cinit,global,class=CODE,space=0,merge=1,delta=2
    10                           	psect	bssCOMMON,global,class=COMMON,space=1,delta=1,noexec
    11                           	psect	dataCOMMON,global,class=COMMON,space=1,delta=1,noexec
    12                           	psect	bssBANK0,global,class=BANK0,space=1,delta=1,noexec
    13                           	psect	dataBANK0,global,class=BANK0,space=1,delta=1,noexec
    14                           	psect	bssBANK1,global,class=BANK1,space=1,delta=1,noexec
    15                           	psect	dataBANK1,global,class=BANK1,space=1,delta=1,noexec
    16                           	psect	inittext,global,class=CODE,space=0,delta=2
    17                           	psect	clrtext,global,class=CODE,space=0,delta=2
    18                           	psect	cstackBANK1,global,class=BANK1,space=1,delta=1,noexec
    19                           	psect	cstackCOMMON,global,class=COMMON,space=1,delta=1,noexec
    20                           	psect	cstackBANK0,global,class=BANK0,space=1,delta=1,noexec
    21                           	psect	maintext,global,class=CODE,space=0,split=1,delta=2
    22                           	psect	text1,local,class=CODE,space=0,merge=1,delta=2
    23                           	psect	text2,local,class=CODE,space=0,merge=1,delta=2
    24                           	psect	text3,local,class=CODE,space=0,merge=1,delta=2
    25                           	psect	text4,local,class=CODE,space=0,merge=1,delta=2,group=2
    26                           	psect	text5,local,class=CODE,space=0,merge=1,delta=2
    27                           	psect	text6,local,class=CODE,space=0,merge=1,delta=2
    28                           	psect	text7,local,class=CODE,space=0,merge=1,delta=2
    29                           	psect	text8,local,class=CODE,space=0,merge=1,delta=2
    30                           	psect	text9,local,class=CODE,space=0,merge=1,delta=2,group=2
    31                           	psect	text10,local,class=CODE,space=0,merge=1,delta=2
    32                           	psect	text11,local,class=CODE,space=0,merge=1,delta=2
    33                           	psect	text12,local,class=CODE,space=0,merge=1,delta=2
    34                           	psect	text13,local,class=CODE,space=0,merge=1,delta=2
    35                           	psect	text14,local,class=CODE,space=0,merge=1,delta=2
    36                           	psect	text15,local,class=CODE,space=0,merge=1,delta=2
    37                           	psect	text16,local,class=CODE,space=0,merge=1,delta=2,group=1
    38                           	psect	text17,local,class=CODE,space=0,merge=1,delta=2
    39                           	psect	text18,local,class=CODE,space=0,merge=1,delta=2
    40                           	psect	text19,local,class=CODE,space=0,merge=1,delta=2
    41                           	psect	text20,local,class=CODE,space=0,merge=1,delta=2
    42                           	psect	text21,local,class=CODE,space=0,merge=1,delta=2
    43                           	psect	text22,local,class=CODE,space=0,merge=1,delta=2
    44                           	psect	text23,local,class=CODE,space=0,merge=1,delta=2
    45                           	psect	text24,local,class=CODE,space=0,merge=1,delta=2
    46                           	psect	text25,local,class=CODE,space=0,merge=1,delta=2,group=1
    47                           	psect	text26,local,class=CODE,space=0,merge=1,delta=2
    48                           	psect	text27,local,class=CODE,space=0,merge=1,delta=2
    49                           	psect	text28,local,class=CODE,space=0,merge=1,delta=2
    50                           	psect	text29,local,class=CODE,space=0,merge=1,delta=2
    51                           	psect	text30,local,class=CODE,space=0,merge=1,delta=2
    52                           	psect	text31,local,class=CODE,space=0,merge=1,delta=2
    53                           	psect	text32,local,class=CODE,space=0,merge=1,delta=2
    54                           	psect	text33,local,class=CODE,space=0,merge=1,delta=2
    55                           	psect	text34,local,class=CODE,space=0,merge=1,delta=2
    56                           	psect	text35,local,class=CODE,space=0,merge=1,delta=2
    57                           	psect	text36,local,class=CODE,space=0,merge=1,delta=2
    58                           	psect	text37,local,class=CODE,space=0,merge=1,delta=2,group=1
    59                           	psect	text38,local,class=CODE,space=0,merge=1,delta=2,group=1
    60                           	psect	text39,local,class=CODE,space=0,merge=1,delta=2
    61                           	psect	text40,local,class=CODE,space=0,merge=1,delta=2,group=2
    62                           	psect	text41,local,class=CODE,space=0,merge=1,delta=2
    63                           	psect	text42,local,class=CODE,space=0,merge=1,delta=2
    64                           	psect	text43,local,class=CODE,space=0,merge=1,delta=2
    65                           	psect	text44,local,class=CODE,space=0,merge=1,delta=2
    66                           	psect	text45,local,class=CODE,space=0,merge=1,delta=2
    67                           	psect	text46,local,class=CODE,space=0,merge=1,delta=2
    68                           	psect	text47,local,class=CODE,space=0,merge=1,delta=2
    69                           	psect	text48,local,class=CODE,space=0,merge=1,delta=2
    70                           	psect	text49,local,class=CODE,space=0,merge=1,delta=2
    71                           	psect	text50,local,class=CODE,space=0,merge=1,delta=2,group=1
    72                           	psect	text51,local,class=CODE,space=0,merge=1,delta=2
    73                           	psect	intentry,global,class=CODE,space=0,delta=2
    74                           	psect	idloc,global,abs,ovrld,class=IDLOC,space=5,delta=2,noexec
    75                           	psect	config,global,abs,ovrld,class=CONFIG,space=4,delta=2,noexec
    76                           	dabs	1,0x7E,2
    77     0000                     
    78                           ; Version 2.40
    79                           ; Generated 17/11/2021 GMT
    80                           ; 
    81                           ; Copyright © 2021, Microchip Technology Inc. and its subsidiaries ("Microchip")
    82                           ; All rights reserved.
    83                           ; 
    84                           ; This software is developed by Microchip Technology Inc. and its subsidiaries ("Microch
      +                          ip").
    85                           ; 
    86                           ; Redistribution and use in source and binary forms, with or without modification, are
    87                           ; permitted provided that the following conditions are met:
    88                           ; 
    89                           ;     1. Redistributions of source code must retain the above copyright notice, this lis
      +                          t of
    90                           ;        conditions and the following disclaimer.
    91                           ; 
    92                           ;     2. Redistributions in binary form must reproduce the above copyright notice, this 
      +                          list
    93                           ;        of conditions and the following disclaimer in the documentation and/or other
    94                           ;        materials provided with the distribution. Publication is not required when
    95                           ;        this file is used in an embedded application.
    96                           ; 
    97                           ;     3. Microchip's name may not be used to endorse or promote products derived from th
      +                          is
    98                           ;        software without specific prior written permission.
    99                           ; 
   100                           ; THIS SOFTWARE IS PROVIDED BY MICROCHIP "AS IS" AND ANY EXPRESS OR IMPLIED WARRANTIES,
   101                           ; INCLUDING, BUT NOT LIMITED TO, THE IMPLIED WARRANTIES OF MERCHANTABILITY AND FITNESS F
      +                          OR
   102                           ; PURPOSE ARE DISCLAIMED.  IN NO EVENT SHALL MICROCHIP BE LIABLE FOR ANY DIRECT, INDIREC
      +                          T,
   103                           ; INCIDENTAL, SPECIAL, EXEMPLARY, OR CONSEQUENTIAL DAMAGES (INCLUDING BUT NOT LIMITED TO
   104                           ; PROCUREMENT OF SUBSTITUTE GOODS OR SERVICES; LOSS OF USE, DATA OR PROFITS; OR BUSINESS
   105                           ; INTERRUPTION) HOWSOEVER CAUSED AND ON ANY THEORY OF LIABILITY, WHETHER IN CONTRACT, ST
      +                          RICT
   106                           ; LIABILITY, OR TORT (INCLUDING NEGLIGENCE OR OTHERWISE) ARISING IN ANY WAY OUT OF THE U
      +                          SE OF
   107                           ; THIS SOFTWARE, EVEN IF ADVISED OF THE POSSIBILITY OF SUCH DAMAGE.
   108                           ; 
   109                           ; 
   110                           ; Code-generator required, PIC16F877A Definitions
   111                           ; 
   112                           ; SFR Addresses
   113     0004                     fsr             equ	4
   114     0004                     fsr0            equ	4
   115     0000                     indf            equ	0
   116     0000                     indf0           equ	0
   117     0002                     pc              equ	2
   118     0002                     pcl             equ	2
   119     000A                     pclath          equ	10
   120     0003                     status          equ	3
   121     0000                     INDF            equ	0	;# 
   122     0001                     TMR0            equ	1	;# 
   123     0002                     PCL             equ	2	;# 
   124     0003                     STATUS          equ	3	;# 
   125     0004                     FSR             equ	4	;# 
   126     0005                     PORTA           equ	5	;# 
   127     0006                     PORTB           equ	6	;# 
   128     0007                     PORTC           equ	7	;# 
   129     0008                     PORTD           equ	8	;# 
   130     0009                     PORTE           equ	9	;# 
   131     000A                     PCLATH          equ	10	;# 
   132     000B                     INTCON          equ	11	;# 
   133     000C                     PIR1            equ	12	;# 
   134     000D                     PIR2            equ	13	;# 
   135     000E                     TMR1            equ	14	;# 
   136     000E                     TMR1L           equ	14	;# 
   137     000F                     TMR1H           equ	15	;# 
   138     0010                     T1CON           equ	16	;# 
   139     0011                     TMR2            equ	17	;# 
   140     0012                     T2CON           equ	18	;# 
   141     0013                     SSPBUF          equ	19	;# 
   142     0014                     SSPCON          equ	20	;# 
   143     0015                     CCPR1           equ	21	;# 
   144     0015                     CCPR1L          equ	21	;# 
   145     0016                     CCPR1H          equ	22	;# 
   146     0017                     CCP1CON         equ	23	;# 
   147     0018                     RCSTA           equ	24	;# 
   148     0019                     TXREG           equ	25	;# 
   149     001A                     RCREG           equ	26	;# 
   150     001B                     CCPR2           equ	27	;# 
   151     001B                     CCPR2L          equ	27	;# 
   152     001C                     CCPR2H          equ	28	;# 
   153     001D                     CCP2CON         equ	29	;# 
   154     001E                     ADRESH          equ	30	;# 
   155     001F                     ADCON0          equ	31	;# 
   156     0081                     OPTION_REG      equ	129	;# 
   157     0085                     TRISA           equ	133	;# 
   158     0086                     TRISB           equ	134	;# 
   159     0087                     TRISC           equ	135	;# 
   160     0088                     TRISD           equ	136	;# 
   161     0089                     TRISE           equ	137	;# 
   162     008C                     PIE1            equ	140	;# 
   163     008D                     PIE2            equ	141	;# 
   164     008E                     PCON            equ	142	;# 
   165     0091                     SSPCON2         equ	145	;# 
   166     0092                     PR2             equ	146	;# 
   167     0093                     SSPADD          equ	147	;# 
   168     0094                     SSPSTAT         equ	148	;# 
   169     0098                     TXSTA           equ	152	;# 
   170     0099                     SPBRG           equ	153	;# 
   171     009C                     CMCON           equ	156	;# 
   172     009D                     CVRCON          equ	157	;# 
   173     009E                     ADRESL          equ	158	;# 
   174     009F                     ADCON1          equ	159	;# 
   175     010C                     EEDATA          equ	268	;# 
   176     010D                     EEADR           equ	269	;# 
   177     010E                     EEDATH          equ	270	;# 
   178     010F                     EEADRH          equ	271	;# 
   179     018C                     EECON1          equ	396	;# 
   180     018D                     EECON2          equ	397	;# 
   181     0000                     INDF            equ	0	;# 
   182     0001                     TMR0            equ	1	;# 
   183     0002                     PCL             equ	2	;# 
   184     0003                     STATUS          equ	3	;# 
   185     0004                     FSR             equ	4	;# 
   186     0005                     PORTA           equ	5	;# 
   187     0006                     PORTB           equ	6	;# 
   188     0007                     PORTC           equ	7	;# 
   189     0008                     PORTD           equ	8	;# 
   190     0009                     PORTE           equ	9	;# 
   191     000A                     PCLATH          equ	10	;# 
   192     000B                     INTCON          equ	11	;# 
   193     000C                     PIR1            equ	12	;# 
   194     000D                     PIR2            equ	13	;# 
   195     000E                     TMR1            equ	14	;# 
   196     000E                     TMR1L           equ	14	;# 
   197     000F                     TMR1H           equ	15	;# 
   198     0010                     T1CON           equ	16	;# 
   199     0011                     TMR2            equ	17	;# 
   200     0012                     T2CON           equ	18	;# 
   201     0013                     SSPBUF          equ	19	;# 
   202     0014                     SSPCON          equ	20	;# 
   203     0015                     CCPR1           equ	21	;# 
   204     0015                     CCPR1L          equ	21	;# 
   205     0016                     CCPR1H          equ	22	;# 
   206     0017                     CCP1CON         equ	23	;# 
   207     0018                     RCSTA           equ	24	;# 
   208     0019                     TXREG           equ	25	;# 
   209     001A                     RCREG           equ	26	;# 
   210     001B                     CCPR2           equ	27	;# 
   211     001B                     CCPR2L          equ	27	;# 
   212     001C                     CCPR2H          equ	28	;# 
   213     001D                     CCP2CON         equ	29	;# 
   214     001E                     ADRESH          equ	30	;# 
   215     001F                     ADCON0          equ	31	;# 
   216     0081                     OPTION_REG      equ	129	;# 
   217     0085                     TRISA           equ	133	;# 
   218     0086                     TRISB           equ	134	;# 
   219     0087                     TRISC           equ	135	;# 
   220     0088                     TRISD           equ	136	;# 
   221     0089                     TRISE           equ	137	;# 
   222     008C                     PIE1            equ	140	;# 
   223     008D                     PIE2            equ	141	;# 
   224     008E                     PCON            equ	142	;# 
   225     0091                     SSPCON2         equ	145	;# 
   226     0092                     PR2             equ	146	;# 
   227     0093                     SSPADD          equ	147	;# 
   228     0094                     SSPSTAT         equ	148	;# 
   229     0098                     TXSTA           equ	152	;# 
   230     0099                     SPBRG           equ	153	;# 
   231     009C                     CMCON           equ	156	;# 
   232     009D                     CVRCON          equ	157	;# 
   233     009E                     ADRESL          equ	158	;# 
   234     009F                     ADCON1          equ	159	;# 
   235     010C                     EEDATA          equ	268	;# 
   236     010D                     EEADR           equ	269	;# 
   237     010E                     EEDATH          equ	270	;# 
   238     010F                     EEADRH          equ	271	;# 
   239     018C                     EECON1          equ	396	;# 
   240     018D                     EECON2          equ	397	;# 
   241     0000                     INDF            equ	0	;# 
   242     0001                     TMR0            equ	1	;# 
   243     0002                     PCL             equ	2	;# 
   244     0003                     STATUS          equ	3	;# 
   245     0004                     FSR             equ	4	;# 
   246     0005                     PORTA           equ	5	;# 
   247     0006                     PORTB           equ	6	;# 
   248     0007                     PORTC           equ	7	;# 
   249     0008                     PORTD           equ	8	;# 
   250     0009                     PORTE           equ	9	;# 
   251     000A                     PCLATH          equ	10	;# 
   252     000B                     INTCON          equ	11	;# 
   253     000C                     PIR1            equ	12	;# 
   254     000D                     PIR2            equ	13	;# 
   255     000E                     TMR1            equ	14	;# 
   256     000E                     TMR1L           equ	14	;# 
   257     000F                     TMR1H           equ	15	;# 
   258     0010                     T1CON           equ	16	;# 
   259     0011                     TMR2            equ	17	;# 
   260     0012                     T2CON           equ	18	;# 
   261     0013                     SSPBUF          equ	19	;# 
   262     0014                     SSPCON          equ	20	;# 
   263     0015                     CCPR1           equ	21	;# 
   264     0015                     CCPR1L          equ	21	;# 
   265     0016                     CCPR1H          equ	22	;# 
   266     0017                     CCP1CON         equ	23	;# 
   267     0018                     RCSTA           equ	24	;# 
   268     0019                     TXREG           equ	25	;# 
   269     001A                     RCREG           equ	26	;# 
   270     001B                     CCPR2           equ	27	;# 
   271     001B                     CCPR2L          equ	27	;# 
   272     001C                     CCPR2H          equ	28	;# 
   273     001D                     CCP2CON         equ	29	;# 
   274     001E                     ADRESH          equ	30	;# 
   275     001F                     ADCON0          equ	31	;# 
   276     0081                     OPTION_REG      equ	129	;# 
   277     0085                     TRISA           equ	133	;# 
   278     0086                     TRISB           equ	134	;# 
   279     0087                     TRISC           equ	135	;# 
   280     0088                     TRISD           equ	136	;# 
   281     0089                     TRISE           equ	137	;# 
   282     008C                     PIE1            equ	140	;# 
   283     008D                     PIE2            equ	141	;# 
   284     008E                     PCON            equ	142	;# 
   285     0091                     SSPCON2         equ	145	;# 
   286     0092                     PR2             equ	146	;# 
   287     0093                     SSPADD          equ	147	;# 
   288     0094                     SSPSTAT         equ	148	;# 
   289     0098                     TXSTA           equ	152	;# 
   290     0099                     SPBRG           equ	153	;# 
   291     009C                     CMCON           equ	156	;# 
   292     009D                     CVRCON          equ	157	;# 
   293     009E                     ADRESL          equ	158	;# 
   294     009F                     ADCON1          equ	159	;# 
   295     010C                     EEDATA          equ	268	;# 
   296     010D                     EEADR           equ	269	;# 
   297     010E                     EEDATH          equ	270	;# 
   298     010F                     EEADRH          equ	271	;# 
   299     018C                     EECON1          equ	396	;# 
   300     018D                     EECON2          equ	397	;# 
   301     0000                     INDF            equ	0	;# 
   302     0001                     TMR0            equ	1	;# 
   303     0002                     PCL             equ	2	;# 
   304     0003                     STATUS          equ	3	;# 
   305     0004                     FSR             equ	4	;# 
   306     0005                     PORTA           equ	5	;# 
   307     0006                     PORTB           equ	6	;# 
   308     0007                     PORTC           equ	7	;# 
   309     0008                     PORTD           equ	8	;# 
   310     0009                     PORTE           equ	9	;# 
   311     000A                     PCLATH          equ	10	;# 
   312     000B                     INTCON          equ	11	;# 
   313     000C                     PIR1            equ	12	;# 
   314     000D                     PIR2            equ	13	;# 
   315     000E                     TMR1            equ	14	;# 
   316     000E                     TMR1L           equ	14	;# 
   317     000F                     TMR1H           equ	15	;# 
   318     0010                     T1CON           equ	16	;# 
   319     0011                     TMR2            equ	17	;# 
   320     0012                     T2CON           equ	18	;# 
   321     0013                     SSPBUF          equ	19	;# 
   322     0014                     SSPCON          equ	20	;# 
   323     0015                     CCPR1           equ	21	;# 
   324     0015                     CCPR1L          equ	21	;# 
   325     0016                     CCPR1H          equ	22	;# 
   326     0017                     CCP1CON         equ	23	;# 
   327     0018                     RCSTA           equ	24	;# 
   328     0019                     TXREG           equ	25	;# 
   329     001A                     RCREG           equ	26	;# 
   330     001B                     CCPR2           equ	27	;# 
   331     001B                     CCPR2L          equ	27	;# 
   332     001C                     CCPR2H          equ	28	;# 
   333     001D                     CCP2CON         equ	29	;# 
   334     001E                     ADRESH          equ	30	;# 
   335     001F                     ADCON0          equ	31	;# 
   336     0081                     OPTION_REG      equ	129	;# 
   337     0085                     TRISA           equ	133	;# 
   338     0086                     TRISB           equ	134	;# 
   339     0087                     TRISC           equ	135	;# 
   340     0088                     TRISD           equ	136	;# 
   341     0089                     TRISE           equ	137	;# 
   342     008C                     PIE1            equ	140	;# 
   343     008D                     PIE2            equ	141	;# 
   344     008E                     PCON            equ	142	;# 
   345     0091                     SSPCON2         equ	145	;# 
   346     0092                     PR2             equ	146	;# 
   347     0093                     SSPADD          equ	147	;# 
   348     0094                     SSPSTAT         equ	148	;# 
   349     0098                     TXSTA           equ	152	;# 
   350     0099                     SPBRG           equ	153	;# 
   351     009C                     CMCON           equ	156	;# 
   352     009D                     CVRCON          equ	157	;# 
   353     009E                     ADRESL          equ	158	;# 
   354     009F                     ADCON1          equ	159	;# 
   355     010C                     EEDATA          equ	268	;# 
   356     010D                     EEADR           equ	269	;# 
   357     010E                     EEDATH          equ	270	;# 
   358     010F                     EEADRH          equ	271	;# 
   359     018C                     EECON1          equ	396	;# 
   360     018D                     EECON2          equ	397	;# 
   361     0000                     INDF            equ	0	;# 
   362     0001                     TMR0            equ	1	;# 
   363     0002                     PCL             equ	2	;# 
   364     0003                     STATUS          equ	3	;# 
   365     0004                     FSR             equ	4	;# 
   366     0005                     PORTA           equ	5	;# 
   367     0006                     PORTB           equ	6	;# 
   368     0007                     PORTC           equ	7	;# 
   369     0008                     PORTD           equ	8	;# 
   370     0009                     PORTE           equ	9	;# 
   371     000A                     PCLATH          equ	10	;# 
   372     000B                     INTCON          equ	11	;# 
   373     000C                     PIR1            equ	12	;# 
   374     000D                     PIR2            equ	13	;# 
   375     000E                     TMR1            equ	14	;# 
   376     000E                     TMR1L           equ	14	;# 
   377     000F                     TMR1H           equ	15	;# 
   378     0010                     T1CON           equ	16	;# 
   379     0011                     TMR2            equ	17	;# 
   380     0012                     T2CON           equ	18	;# 
   381     0013                     SSPBUF          equ	19	;# 
   382     0014                     SSPCON          equ	20	;# 
   383     0015                     CCPR1           equ	21	;# 
   384     0015                     CCPR1L          equ	21	;# 
   385     0016                     CCPR1H          equ	22	;# 
   386     0017                     CCP1CON         equ	23	;# 
   387     0018                     RCSTA           equ	24	;# 
   388     0019                     TXREG           equ	25	;# 
   389     001A                     RCREG           equ	26	;# 
   390     001B                     CCPR2           equ	27	;# 
   391     001B                     CCPR2L          equ	27	;# 
   392     001C                     CCPR2H          equ	28	;# 
   393     001D                     CCP2CON         equ	29	;# 
   394     001E                     ADRESH          equ	30	;# 
   395     001F                     ADCON0          equ	31	;# 
   396     0081                     OPTION_REG      equ	129	;# 
   397     0085                     TRISA           equ	133	;# 
   398     0086                     TRISB           equ	134	;# 
   399     0087                     TRISC           equ	135	;# 
   400     0088                     TRISD           equ	136	;# 
   401     0089                     TRISE           equ	137	;# 
   402     008C                     PIE1            equ	140	;# 
   403     008D                     PIE2            equ	141	;# 
   404     008E                     PCON            equ	142	;# 
   405     0091                     SSPCON2         equ	145	;# 
   406     0092                     PR2             equ	146	;# 
   407     0093                     SSPADD          equ	147	;# 
   408     0094                     SSPSTAT         equ	148	;# 
   409     0098                     TXSTA           equ	152	;# 
   410     0099                     SPBRG           equ	153	;# 
   411     009C                     CMCON           equ	156	;# 
   412     009D                     CVRCON          equ	157	;# 
   413     009E                     ADRESL          equ	158	;# 
   414     009F                     ADCON1          equ	159	;# 
   415     010C                     EEDATA          equ	268	;# 
   416     010D                     EEADR           equ	269	;# 
   417     010E                     EEDATH          equ	270	;# 
   418     010F                     EEADRH          equ	271	;# 
   419     018C                     EECON1          equ	396	;# 
   420     018D                     EECON2          equ	397	;# 
   421     0000                     INDF            equ	0	;# 
   422     0001                     TMR0            equ	1	;# 
   423     0002                     PCL             equ	2	;# 
   424     0003                     STATUS          equ	3	;# 
   425     0004                     FSR             equ	4	;# 
   426     0005                     PORTA           equ	5	;# 
   427     0006                     PORTB           equ	6	;# 
   428     0007                     PORTC           equ	7	;# 
   429     0008                     PORTD           equ	8	;# 
   430     0009                     PORTE           equ	9	;# 
   431     000A                     PCLATH          equ	10	;# 
   432     000B                     INTCON          equ	11	;# 
   433     000C                     PIR1            equ	12	;# 
   434     000D                     PIR2            equ	13	;# 
   435     000E                     TMR1            equ	14	;# 
   436     000E                     TMR1L           equ	14	;# 
   437     000F                     TMR1H           equ	15	;# 
   438     0010                     T1CON           equ	16	;# 
   439     0011                     TMR2            equ	17	;# 
   440     0012                     T2CON           equ	18	;# 
   441     0013                     SSPBUF          equ	19	;# 
   442     0014                     SSPCON          equ	20	;# 
   443     0015                     CCPR1           equ	21	;# 
   444     0015                     CCPR1L          equ	21	;# 
   445     0016                     CCPR1H          equ	22	;# 
   446     0017                     CCP1CON         equ	23	;# 
   447     0018                     RCSTA           equ	24	;# 
   448     0019                     TXREG           equ	25	;# 
   449     001A                     RCREG           equ	26	;# 
   450     001B                     CCPR2           equ	27	;# 
   451     001B                     CCPR2L          equ	27	;# 
   452     001C                     CCPR2H          equ	28	;# 
   453     001D                     CCP2CON         equ	29	;# 
   454     001E                     ADRESH          equ	30	;# 
   455     001F                     ADCON0          equ	31	;# 
   456     0081                     OPTION_REG      equ	129	;# 
   457     0085                     TRISA           equ	133	;# 
   458     0086                     TRISB           equ	134	;# 
   459     0087                     TRISC           equ	135	;# 
   460     0088                     TRISD           equ	136	;# 
   461     0089                     TRISE           equ	137	;# 
   462     008C                     PIE1            equ	140	;# 
   463     008D                     PIE2            equ	141	;# 
   464     008E                     PCON            equ	142	;# 
   465     0091                     SSPCON2         equ	145	;# 
   466     0092                     PR2             equ	146	;# 
   467     0093                     SSPADD          equ	147	;# 
   468     0094                     SSPSTAT         equ	148	;# 
   469     0098                     TXSTA           equ	152	;# 
   470     0099                     SPBRG           equ	153	;# 
   471     009C                     CMCON           equ	156	;# 
   472     009D                     CVRCON          equ	157	;# 
   473     009E                     ADRESL          equ	158	;# 
   474     009F                     ADCON1          equ	159	;# 
   475     010C                     EEDATA          equ	268	;# 
   476     010D                     EEADR           equ	269	;# 
   477     010E                     EEDATH          equ	270	;# 
   478     010F                     EEADRH          equ	271	;# 
   479     018C                     EECON1          equ	396	;# 
   480     018D                     EECON2          equ	397	;# 
   481     0000                     INDF            equ	0	;# 
   482     0001                     TMR0            equ	1	;# 
   483     0002                     PCL             equ	2	;# 
   484     0003                     STATUS          equ	3	;# 
   485     0004                     FSR             equ	4	;# 
   486     0005                     PORTA           equ	5	;# 
   487     0006                     PORTB           equ	6	;# 
   488     0007                     PORTC           equ	7	;# 
   489     0008                     PORTD           equ	8	;# 
   490     0009                     PORTE           equ	9	;# 
   491     000A                     PCLATH          equ	10	;# 
   492     000B                     INTCON          equ	11	;# 
   493     000C                     PIR1            equ	12	;# 
   494     000D                     PIR2            equ	13	;# 
   495     000E                     TMR1            equ	14	;# 
   496     000E                     TMR1L           equ	14	;# 
   497     000F                     TMR1H           equ	15	;# 
   498     0010                     T1CON           equ	16	;# 
   499     0011                     TMR2            equ	17	;# 
   500     0012                     T2CON           equ	18	;# 
   501     0013                     SSPBUF          equ	19	;# 
   502     0014                     SSPCON          equ	20	;# 
   503     0015                     CCPR1           equ	21	;# 
   504     0015                     CCPR1L          equ	21	;# 
   505     0016                     CCPR1H          equ	22	;# 
   506     0017                     CCP1CON         equ	23	;# 
   507     0018                     RCSTA           equ	24	;# 
   508     0019                     TXREG           equ	25	;# 
   509     001A                     RCREG           equ	26	;# 
   510     001B                     CCPR2           equ	27	;# 
   511     001B                     CCPR2L          equ	27	;# 
   512     001C                     CCPR2H          equ	28	;# 
   513     001D                     CCP2CON         equ	29	;# 
   514     001E                     ADRESH          equ	30	;# 
   515     001F                     ADCON0          equ	31	;# 
   516     0081                     OPTION_REG      equ	129	;# 
   517     0085                     TRISA           equ	133	;# 
   518     0086                     TRISB           equ	134	;# 
   519     0087                     TRISC           equ	135	;# 
   520     0088                     TRISD           equ	136	;# 
   521     0089                     TRISE           equ	137	;# 
   522     008C                     PIE1            equ	140	;# 
   523     008D                     PIE2            equ	141	;# 
   524     008E                     PCON            equ	142	;# 
   525     0091                     SSPCON2         equ	145	;# 
   526     0092                     PR2             equ	146	;# 
   527     0093                     SSPADD          equ	147	;# 
   528     0094                     SSPSTAT         equ	148	;# 
   529     0098                     TXSTA           equ	152	;# 
   530     0099                     SPBRG           equ	153	;# 
   531     009C                     CMCON           equ	156	;# 
   532     009D                     CVRCON          equ	157	;# 
   533     009E                     ADRESL          equ	158	;# 
   534     009F                     ADCON1          equ	159	;# 
   535     010C                     EEDATA          equ	268	;# 
   536     010D                     EEADR           equ	269	;# 
   537     010E                     EEDATH          equ	270	;# 
   538     010F                     EEADRH          equ	271	;# 
   539     018C                     EECON1          equ	396	;# 
   540     018D                     EECON2          equ	397	;# 
   541     0000                     INDF            equ	0	;# 
   542     0001                     TMR0            equ	1	;# 
   543     0002                     PCL             equ	2	;# 
   544     0003                     STATUS          equ	3	;# 
   545     0004                     FSR             equ	4	;# 
   546     0005                     PORTA           equ	5	;# 
   547     0006                     PORTB           equ	6	;# 
   548     0007                     PORTC           equ	7	;# 
   549     0008                     PORTD           equ	8	;# 
   550     0009                     PORTE           equ	9	;# 
   551     000A                     PCLATH          equ	10	;# 
   552     000B                     INTCON          equ	11	;# 
   553     000C                     PIR1            equ	12	;# 
   554     000D                     PIR2            equ	13	;# 
   555     000E                     TMR1            equ	14	;# 
   556     000E                     TMR1L           equ	14	;# 
   557     000F                     TMR1H           equ	15	;# 
   558     0010                     T1CON           equ	16	;# 
   559     0011                     TMR2            equ	17	;# 
   560     0012                     T2CON           equ	18	;# 
   561     0013                     SSPBUF          equ	19	;# 
   562     0014                     SSPCON          equ	20	;# 
   563     0015                     CCPR1           equ	21	;# 
   564     0015                     CCPR1L          equ	21	;# 
   565     0016                     CCPR1H          equ	22	;# 
   566     0017                     CCP1CON         equ	23	;# 
   567     0018                     RCSTA           equ	24	;# 
   568     0019                     TXREG           equ	25	;# 
   569     001A                     RCREG           equ	26	;# 
   570     001B                     CCPR2           equ	27	;# 
   571     001B                     CCPR2L          equ	27	;# 
   572     001C                     CCPR2H          equ	28	;# 
   573     001D                     CCP2CON         equ	29	;# 
   574     001E                     ADRESH          equ	30	;# 
   575     001F                     ADCON0          equ	31	;# 
   576     0081                     OPTION_REG      equ	129	;# 
   577     0085                     TRISA           equ	133	;# 
   578     0086                     TRISB           equ	134	;# 
   579     0087                     TRISC           equ	135	;# 
   580     0088                     TRISD           equ	136	;# 
   581     0089                     TRISE           equ	137	;# 
   582     008C                     PIE1            equ	140	;# 
   583     008D                     PIE2            equ	141	;# 
   584     008E                     PCON            equ	142	;# 
   585     0091                     SSPCON2         equ	145	;# 
   586     0092                     PR2             equ	146	;# 
   587     0093                     SSPADD          equ	147	;# 
   588     0094                     SSPSTAT         equ	148	;# 
   589     0098                     TXSTA           equ	152	;# 
   590     0099                     SPBRG           equ	153	;# 
   591     009C                     CMCON           equ	156	;# 
   592     009D                     CVRCON          equ	157	;# 
   593     009E                     ADRESL          equ	158	;# 
   594     009F                     ADCON1          equ	159	;# 
   595     010C                     EEDATA          equ	268	;# 
   596     010D                     EEADR           equ	269	;# 
   597     010E                     EEDATH          equ	270	;# 
   598     010F                     EEADRH          equ	271	;# 
   599     018C                     EECON1          equ	396	;# 
   600     018D                     EECON2          equ	397	;# 
   601     0000                     INDF            equ	0	;# 
   602     0001                     TMR0            equ	1	;# 
   603     0002                     PCL             equ	2	;# 
   604     0003                     STATUS          equ	3	;# 
   605     0004                     FSR             equ	4	;# 
   606     0005                     PORTA           equ	5	;# 
   607     0006                     PORTB           equ	6	;# 
   608     0007                     PORTC           equ	7	;# 
   609     0008                     PORTD           equ	8	;# 
   610     0009                     PORTE           equ	9	;# 
   611     000A                     PCLATH          equ	10	;# 
   612     000B                     INTCON          equ	11	;# 
   613     000C                     PIR1            equ	12	;# 
   614     000D                     PIR2            equ	13	;# 
   615     000E                     TMR1            equ	14	;# 
   616     000E                     TMR1L           equ	14	;# 
   617     000F                     TMR1H           equ	15	;# 
   618     0010                     T1CON           equ	16	;# 
   619     0011                     TMR2            equ	17	;# 
   620     0012                     T2CON           equ	18	;# 
   621     0013                     SSPBUF          equ	19	;# 
   622     0014                     SSPCON          equ	20	;# 
   623     0015                     CCPR1           equ	21	;# 
   624     0015                     CCPR1L          equ	21	;# 
   625     0016                     CCPR1H          equ	22	;# 
   626     0017                     CCP1CON         equ	23	;# 
   627     0018                     RCSTA           equ	24	;# 
   628     0019                     TXREG           equ	25	;# 
   629     001A                     RCREG           equ	26	;# 
   630     001B                     CCPR2           equ	27	;# 
   631     001B                     CCPR2L          equ	27	;# 
   632     001C                     CCPR2H          equ	28	;# 
   633     001D                     CCP2CON         equ	29	;# 
   634     001E                     ADRESH          equ	30	;# 
   635     001F                     ADCON0          equ	31	;# 
   636     0081                     OPTION_REG      equ	129	;# 
   637     0085                     TRISA           equ	133	;# 
   638     0086                     TRISB           equ	134	;# 
   639     0087                     TRISC           equ	135	;# 
   640     0088                     TRISD           equ	136	;# 
   641     0089                     TRISE           equ	137	;# 
   642     008C                     PIE1            equ	140	;# 
   643     008D                     PIE2            equ	141	;# 
   644     008E                     PCON            equ	142	;# 
   645     0091                     SSPCON2         equ	145	;# 
   646     0092                     PR2             equ	146	;# 
   647     0093                     SSPADD          equ	147	;# 
   648     0094                     SSPSTAT         equ	148	;# 
   649     0098                     TXSTA           equ	152	;# 
   650     0099                     SPBRG           equ	153	;# 
   651     009C                     CMCON           equ	156	;# 
   652     009D                     CVRCON          equ	157	;# 
   653     009E                     ADRESL          equ	158	;# 
   654     009F                     ADCON1          equ	159	;# 
   655     010C                     EEDATA          equ	268	;# 
   656     010D                     EEADR           equ	269	;# 
   657     010E                     EEDATH          equ	270	;# 
   658     010F                     EEADRH          equ	271	;# 
   659     018C                     EECON1          equ	396	;# 
   660     018D                     EECON2          equ	397	;# 
   661     0000                     INDF            equ	0	;# 
   662     0001                     TMR0            equ	1	;# 
   663     0002                     PCL             equ	2	;# 
   664     0003                     STATUS          equ	3	;# 
   665     0004                     FSR             equ	4	;# 
   666     0005                     PORTA           equ	5	;# 
   667     0006                     PORTB           equ	6	;# 
   668     0007                     PORTC           equ	7	;# 
   669     0008                     PORTD           equ	8	;# 
   670     0009                     PORTE           equ	9	;# 
   671     000A                     PCLATH          equ	10	;# 
   672     000B                     INTCON          equ	11	;# 
   673     000C                     PIR1            equ	12	;# 
   674     000D                     PIR2            equ	13	;# 
   675     000E                     TMR1            equ	14	;# 
   676     000E                     TMR1L           equ	14	;# 
   677     000F                     TMR1H           equ	15	;# 
   678     0010                     T1CON           equ	16	;# 
   679     0011                     TMR2            equ	17	;# 
   680     0012                     T2CON           equ	18	;# 
   681     0013                     SSPBUF          equ	19	;# 
   682     0014                     SSPCON          equ	20	;# 
   683     0015                     CCPR1           equ	21	;# 
   684     0015                     CCPR1L          equ	21	;# 
   685     0016                     CCPR1H          equ	22	;# 
   686     0017                     CCP1CON         equ	23	;# 
   687     0018                     RCSTA           equ	24	;# 
   688     0019                     TXREG           equ	25	;# 
   689     001A                     RCREG           equ	26	;# 
   690     001B                     CCPR2           equ	27	;# 
   691     001B                     CCPR2L          equ	27	;# 
   692     001C                     CCPR2H          equ	28	;# 
   693     001D                     CCP2CON         equ	29	;# 
   694     001E                     ADRESH          equ	30	;# 
   695     001F                     ADCON0          equ	31	;# 
   696     0081                     OPTION_REG      equ	129	;# 
   697     0085                     TRISA           equ	133	;# 
   698     0086                     TRISB           equ	134	;# 
   699     0087                     TRISC           equ	135	;# 
   700     0088                     TRISD           equ	136	;# 
   701     0089                     TRISE           equ	137	;# 
   702     008C                     PIE1            equ	140	;# 
   703     008D                     PIE2            equ	141	;# 
   704     008E                     PCON            equ	142	;# 
   705     0091                     SSPCON2         equ	145	;# 
   706     0092                     PR2             equ	146	;# 
   707     0093                     SSPADD          equ	147	;# 
   708     0094                     SSPSTAT         equ	148	;# 
   709     0098                     TXSTA           equ	152	;# 
   710     0099                     SPBRG           equ	153	;# 
   711     009C                     CMCON           equ	156	;# 
   712     009D                     CVRCON          equ	157	;# 
   713     009E                     ADRESL          equ	158	;# 
   714     009F                     ADCON1          equ	159	;# 
   715     010C                     EEDATA          equ	268	;# 
   716     010D                     EEADR           equ	269	;# 
   717     010E                     EEDATH          equ	270	;# 
   718     010F                     EEADRH          equ	271	;# 
   719     018C                     EECON1          equ	396	;# 
   720     018D                     EECON2          equ	397	;# 
   721     0000                     INDF            equ	0	;# 
   722     0001                     TMR0            equ	1	;# 
   723     0002                     PCL             equ	2	;# 
   724     0003                     STATUS          equ	3	;# 
   725     0004                     FSR             equ	4	;# 
   726     0005                     PORTA           equ	5	;# 
   727     0006                     PORTB           equ	6	;# 
   728     0007                     PORTC           equ	7	;# 
   729     0008                     PORTD           equ	8	;# 
   730     0009                     PORTE           equ	9	;# 
   731     000A                     PCLATH          equ	10	;# 
   732     000B                     INTCON          equ	11	;# 
   733     000C                     PIR1            equ	12	;# 
   734     000D                     PIR2            equ	13	;# 
   735     000E                     TMR1            equ	14	;# 
   736     000E                     TMR1L           equ	14	;# 
   737     000F                     TMR1H           equ	15	;# 
   738     0010                     T1CON           equ	16	;# 
   739     0011                     TMR2            equ	17	;# 
   740     0012                     T2CON           equ	18	;# 
   741     0013                     SSPBUF          equ	19	;# 
   742     0014                     SSPCON          equ	20	;# 
   743     0015                     CCPR1           equ	21	;# 
   744     0015                     CCPR1L          equ	21	;# 
   745     0016                     CCPR1H          equ	22	;# 
   746     0017                     CCP1CON         equ	23	;# 
   747     0018                     RCSTA           equ	24	;# 
   748     0019                     TXREG           equ	25	;# 
   749     001A                     RCREG           equ	26	;# 
   750     001B                     CCPR2           equ	27	;# 
   751     001B                     CCPR2L          equ	27	;# 
   752     001C                     CCPR2H          equ	28	;# 
   753     001D                     CCP2CON         equ	29	;# 
   754     001E                     ADRESH          equ	30	;# 
   755     001F                     ADCON0          equ	31	;# 
   756     0081                     OPTION_REG      equ	129	;# 
   757     0085                     TRISA           equ	133	;# 
   758     0086                     TRISB           equ	134	;# 
   759     0087                     TRISC           equ	135	;# 
   760     0088                     TRISD           equ	136	;# 
   761     0089                     TRISE           equ	137	;# 
   762     008C                     PIE1            equ	140	;# 
   763     008D                     PIE2            equ	141	;# 
   764     008E                     PCON            equ	142	;# 
   765     0091                     SSPCON2         equ	145	;# 
   766     0092                     PR2             equ	146	;# 
   767     0093                     SSPADD          equ	147	;# 
   768     0094                     SSPSTAT         equ	148	;# 
   769     0098                     TXSTA           equ	152	;# 
   770     0099                     SPBRG           equ	153	;# 
   771     009C                     CMCON           equ	156	;# 
   772     009D                     CVRCON          equ	157	;# 
   773     009E                     ADRESL          equ	158	;# 
   774     009F                     ADCON1          equ	159	;# 
   775     010C                     EEDATA          equ	268	;# 
   776     010D                     EEADR           equ	269	;# 
   777     010E                     EEDATH          equ	270	;# 
   778     010F                     EEADRH          equ	271	;# 
   779     018C                     EECON1          equ	396	;# 
   780     018D                     EECON2          equ	397	;# 
   781     0000                     INDF            equ	0	;# 
   782     0001                     TMR0            equ	1	;# 
   783     0002                     PCL             equ	2	;# 
   784     0003                     STATUS          equ	3	;# 
   785     0004                     FSR             equ	4	;# 
   786     0005                     PORTA           equ	5	;# 
   787     0006                     PORTB           equ	6	;# 
   788     0007                     PORTC           equ	7	;# 
   789     0008                     PORTD           equ	8	;# 
   790     0009                     PORTE           equ	9	;# 
   791     000A                     PCLATH          equ	10	;# 
   792     000B                     INTCON          equ	11	;# 
   793     000C                     PIR1            equ	12	;# 
   794     000D                     PIR2            equ	13	;# 
   795     000E                     TMR1            equ	14	;# 
   796     000E                     TMR1L           equ	14	;# 
   797     000F                     TMR1H           equ	15	;# 
   798     0010                     T1CON           equ	16	;# 
   799     0011                     TMR2            equ	17	;# 
   800     0012                     T2CON           equ	18	;# 
   801     0013                     SSPBUF          equ	19	;# 
   802     0014                     SSPCON          equ	20	;# 
   803     0015                     CCPR1           equ	21	;# 
   804     0015                     CCPR1L          equ	21	;# 
   805     0016                     CCPR1H          equ	22	;# 
   806     0017                     CCP1CON         equ	23	;# 
   807     0018                     RCSTA           equ	24	;# 
   808     0019                     TXREG           equ	25	;# 
   809     001A                     RCREG           equ	26	;# 
   810     001B                     CCPR2           equ	27	;# 
   811     001B                     CCPR2L          equ	27	;# 
   812     001C                     CCPR2H          equ	28	;# 
   813     001D                     CCP2CON         equ	29	;# 
   814     001E                     ADRESH          equ	30	;# 
   815     001F                     ADCON0          equ	31	;# 
   816     0081                     OPTION_REG      equ	129	;# 
   817     0085                     TRISA           equ	133	;# 
   818     0086                     TRISB           equ	134	;# 
   819     0087                     TRISC           equ	135	;# 
   820     0088                     TRISD           equ	136	;# 
   821     0089                     TRISE           equ	137	;# 
   822     008C                     PIE1            equ	140	;# 
   823     008D                     PIE2            equ	141	;# 
   824     008E                     PCON            equ	142	;# 
   825     0091                     SSPCON2         equ	145	;# 
   826     0092                     PR2             equ	146	;# 
   827     0093                     SSPADD          equ	147	;# 
   828     0094                     SSPSTAT         equ	148	;# 
   829     0098                     TXSTA           equ	152	;# 
   830     0099                     SPBRG           equ	153	;# 
   831     009C                     CMCON           equ	156	;# 
   832     009D                     CVRCON          equ	157	;# 
   833     009E                     ADRESL          equ	158	;# 
   834     009F                     ADCON1          equ	159	;# 
   835     010C                     EEDATA          equ	268	;# 
   836     010D                     EEADR           equ	269	;# 
   837     010E                     EEDATH          equ	270	;# 
   838     010F                     EEADRH          equ	271	;# 
   839     018C                     EECON1          equ	396	;# 
   840     018D                     EECON2          equ	397	;# 
   841                           
   842                           	psect	idataCOMMON
   843     1224                     __pidataCOMMON:
   844                           
   845                           ;initializer for read_digital_keypad@once
   846     1224  3401               	retlw	1
   847                           
   848                           ;initializer for _held_key
   849     1225  343F               	retlw	63
   850                           
   851                           	psect	idataBANK0
   852     04FB                     __pidataBANK0:
   853                           
   854                           ;initializer for main@F1255
   855     04FB  344F               	retlw	79
   856     04FC  344E               	retlw	78
   857     04FD  3400               	retlw	0
   858                           
   859                           ;initializer for _log_count
   860     04FE  34FF               	retlw	-1
   861                           
   862                           ;initializer for read_digital_keypad@prev_key
   863     04FF  343F               	retlw	63
   864                           
   865                           	psect	idataBANK1
   866     12E2                     __pidataBANK1:
   867                           
   868                           ;initializer for _gear
   869     12E2  34D1               	retlw	low (STR_1| (0+32768))
   870     12E3  3486               	retlw	high (STR_1| (0+32768))
   871     12E4  34D4               	retlw	low (STR_2| (0+32768))
   872     12E5  3486               	retlw	high (STR_2| (0+32768))
   873     12E6  34C2               	retlw	low (STR_3| (0+32768))
   874     12E7  3486               	retlw	high (STR_3| (0+32768))
   875     12E8  34C5               	retlw	low (STR_4| (0+32768))
   876     12E9  3486               	retlw	high (STR_4| (0+32768))
   877     12EA  34C8               	retlw	low (STR_5| (0+32768))
   878     12EB  3486               	retlw	high (STR_5| (0+32768))
   879     12EC  34CB               	retlw	low (STR_6| (0+32768))
   880     12ED  3486               	retlw	high (STR_6| (0+32768))
   881                           
   882                           ;initializer for _menu
   883     12EE  34AF               	retlw	low (STR_13| (0+32768))
   884     12EF  3486               	retlw	high (STR_13| (0+32768))
   885     12F0  349C               	retlw	low (STR_14| (0+32768))
   886     12F1  3486               	retlw	high (STR_14| (0+32768))
   887     12F2  3485               	retlw	low (STR_15| (0+32768))
   888     12F3  3486               	retlw	high (STR_15| (0+32768))
   889     12F4  34A6               	retlw	low (STR_16| (0+32768))
   890     12F5  3486               	retlw	high (STR_16| (0+32768))
   891     12F6  340E               	retlw	low (STR_17| (0+32768))
   892     12F7  3486               	retlw	high (STR_17| (0+32768))
   893     0019                     _TXREG          set	25
   894     001A                     _RCREG          set	26
   895     001E                     _ADRESH         set	30
   896     001F                     _ADCON0         set	31
   897     0006                     _PORTB          set	6
   898     0013                     _SSPBUF         set	19
   899     0008                     _PORTD          set	8
   900     0064                     _TXIF           set	100
   901     0065                     _RCIF           set	101
   902     00C4                     _CREN           set	196
   903     00C7                     _SPEN           set	199
   904     0061                     _TMR2IF         set	97
   905     00FA                     _nDONE          set	250
   906     00FA                     _GO             set	250
   907     00F8                     _ADON           set	248
   908     0092                     _TMR2ON         set	146
   909     005F                     _GIE            set	95
   910     005E                     _PEIE           set	94
   911     00A5                     _SSPEN          set	165
   912     00A3                     _SSPM3          set	163
   913     0049                     _RE1            set	73
   914     004A                     _RE2            set	74
   915     0099                     _SPBRG          set	153
   916     0092                     _PR2            set	146
   917     009E                     _ADRESL         set	158
   918     0086                     _TRISB          set	134
   919     0091                     _SSPCON2        set	145
   920     0093                     _SSPADD         set	147
   921     0088                     _TRISD          set	136
   922     0461                     _TMR2IE         set	1121
   923     04FF                     _ADFM           set	1279
   924     048E                     _ACKSTAT        set	1166
   925     048C                     _ACKEN          set	1164
   926     048D                     _ACKDT          set	1165
   927     048B                     _RCEN           set	1163
   928     048A                     _PEN            set	1162
   929     0489                     _RSEN           set	1161
   930     0488                     _SEN            set	1160
   931     04A2                     _R_nW           set	1186
   932     0449                     _TRISE1         set	1097
   933     044A                     _TRISE2         set	1098
   934                           
   935                           	psect	strings
   936     1000                     __pstrings:
   937     1000                     stringtab:
   938     1000                     __stringtab:
   939                           
   940                           ;	String table - string pointers are 2 bytes each
   941     1000  1BFF               	btfsc	btemp+1,7
   942     1001  280A               	ljmp	stringcode
   943     1002  1383               	bcf	3,7
   944     1003  187F               	btfsc	btemp+1,0
   945     1004  1783               	bsf	3,7
   946     1005  0800               	movf	0,w
   947     1006  0A84               	incf	4,f
   948     1007  1903               	skipnz
   949     1008  0AFF               	incf	btemp+1,f
   950     1009  0008               	return
   951     100A                     stringcode:
   952     100A  087F               	movf	btemp+1,w
   953     100B  397F               	andlw	127
   954     100C  008A               	movwf	10
   955     100D  0804               	movf	4,w
   956     100E  0A84               	incf	4,f
   957     100F  1903               	skipnz
   958     1010  0AFF               	incf	btemp+1,f
   959     1011  0082               	movwf	2
   960     1012                     __stringbase:
   961     1012                     __end_of__stringtab:
   962                           
   963                           	psect	stringtext
   964     0500                     __pstringtext:
   965     0500                     STR_26:
   966     0500  3420               	retlw	32	;' '
   967     0501  3420               	retlw	32	;' '
   968     0502  3420               	retlw	32	;' '
   969     0503  3420               	retlw	32	;' '
   970     0504  3420               	retlw	32	;' '
   971     0505  344E               	retlw	78	;'N'
   972     0506  344F               	retlw	79	;'O'
   973     0507  3420               	retlw	32	;' '
   974     0508  344C               	retlw	76	;'L'
   975     0509  344F               	retlw	79	;'O'
   976     050A  3447               	retlw	71	;'G'
   977     050B  3453               	retlw	83	;'S'
   978     050C  3420               	retlw	32	;' '
   979     050D  3420               	retlw	32	;' '
   980     050E  3420               	retlw	32	;' '
   981     050F  3420               	retlw	32	;' '
   982     0510  3400               	retlw	0
   983     0511                     STR_41:
   984     0511  3420               	retlw	32	;' '
   985     0512  3420               	retlw	32	;' '
   986     0513  3420               	retlw	32	;' '
   987     0514  3420               	retlw	32	;' '
   988     0515  3454               	retlw	84	;'T'
   989     0516  3452               	retlw	82	;'R'
   990     0517  3459               	retlw	89	;'Y'
   991     0518  3420               	retlw	32	;' '
   992     0519  3441               	retlw	65	;'A'
   993     051A  3447               	retlw	71	;'G'
   994     051B  3441               	retlw	65	;'A'
   995     051C  3449               	retlw	73	;'I'
   996     051D  344E               	retlw	78	;'N'
   997     051E  3420               	retlw	32	;' '
   998     051F  3420               	retlw	32	;' '
   999     0520  3420               	retlw	32	;' '
  1000     0521  3400               	retlw	0
  1001     0522                     STR_29:
  1002     0522  3420               	retlw	32	;' '
  1003     0523  3420               	retlw	32	;' '
  1004     0524  344C               	retlw	76	;'L'
  1005     0525  344F               	retlw	79	;'O'
  1006     0526  3447               	retlw	71	;'G'
  1007     0527  3453               	retlw	83	;'S'
  1008     0528  3420               	retlw	32	;' '
  1009     0529  3443               	retlw	67	;'C'
  1010     052A  344C               	retlw	76	;'L'
  1011     052B  3445               	retlw	69	;'E'
  1012     052C  3441               	retlw	65	;'A'
  1013     052D  3452               	retlw	82	;'R'
  1014     052E  3445               	retlw	69	;'E'
  1015     052F  3444               	retlw	68	;'D'
  1016     0530  3420               	retlw	32	;' '
  1017     0531  3420               	retlw	32	;' '
  1018     0532  3400               	retlw	0
  1019     0533                     STR_30:
  1020     0533  3420               	retlw	32	;' '
  1021     0534  3420               	retlw	32	;' '
  1022     0535  3453               	retlw	83	;'S'
  1023     0536  3455               	retlw	85	;'U'
  1024     0537  3443               	retlw	67	;'C'
  1025     0538  3443               	retlw	67	;'C'
  1026     0539  3445               	retlw	69	;'E'
  1027     053A  3453               	retlw	83	;'S'
  1028     053B  3453               	retlw	83	;'S'
  1029     053C  3446               	retlw	70	;'F'
  1030     053D  3455               	retlw	85	;'U'
  1031     053E  344C               	retlw	76	;'L'
  1032     053F  344C               	retlw	76	;'L'
  1033     0540  3459               	retlw	89	;'Y'
  1034     0541  3420               	retlw	32	;' '
  1035     0542  3420               	retlw	32	;' '
  1036     0543  3400               	retlw	0
  1037     0544                     STR_33:
  1038     0544  3420               	retlw	32	;' '
  1039     0545  344C               	retlw	76	;'L'
  1040     0546  344F               	retlw	79	;'O'
  1041     0547  3447               	retlw	71	;'G'
  1042     0548  3420               	retlw	32	;' '
  1043     0549  3444               	retlw	68	;'D'
  1044     054A  344F               	retlw	79	;'O'
  1045     054B  3457               	retlw	87	;'W'
  1046     054C  344E               	retlw	78	;'N'
  1047     054D  344C               	retlw	76	;'L'
  1048     054E  344F               	retlw	79	;'O'
  1049     054F  3441               	retlw	65	;'A'
  1050     0550  3444               	retlw	68	;'D'
  1051     0551  3445               	retlw	69	;'E'
  1052     0552  3444               	retlw	68	;'D'
  1053     0553  3420               	retlw	32	;' '
  1054     0554  3400               	retlw	0
  1055     0555                     STR_27:
  1056     0555  3420               	retlw	32	;' '
  1057     0556  3420               	retlw	32	;' '
  1058     0557  3441               	retlw	65	;'A'
  1059     0558  3452               	retlw	82	;'R'
  1060     0559  3445               	retlw	69	;'E'
  1061     055A  3420               	retlw	32	;' '
  1062     055B  3441               	retlw	65	;'A'
  1063     055C  3456               	retlw	86	;'V'
  1064     055D  3441               	retlw	65	;'A'
  1065     055E  3449               	retlw	73	;'I'
  1066     055F  344C               	retlw	76	;'L'
  1067     0560  3441               	retlw	65	;'A'
  1068     0561  3442               	retlw	66	;'B'
  1069     0562  344C               	retlw	76	;'L'
  1070     0563  3445               	retlw	69	;'E'
  1071     0564  3420               	retlw	32	;' '
  1072     0565  3400               	retlw	0
  1073     0566                     STR_38:
  1074     0566  3450               	retlw	80	;'P'
  1075     0567  3441               	retlw	65	;'A'
  1076     0568  3453               	retlw	83	;'S'
  1077     0569  3453               	retlw	83	;'S'
  1078     056A  3457               	retlw	87	;'W'
  1079     056B  344F               	retlw	79	;'O'
  1080     056C  3452               	retlw	82	;'R'
  1081     056D  3444               	retlw	68	;'D'
  1082     056E  3420               	retlw	32	;' '
  1083     056F  3443               	retlw	67	;'C'
  1084     0570  3448               	retlw	72	;'H'
  1085     0571  3441               	retlw	65	;'A'
  1086     0572  344E               	retlw	78	;'N'
  1087     0573  3447               	retlw	71	;'G'
  1088     0574  3445               	retlw	69	;'E'
  1089     0575  3444               	retlw	68	;'D'
  1090     0576  3400               	retlw	0
  1091     0577                     STR_37:
  1092     0577  3452               	retlw	82	;'R'
  1093     0578  3445               	retlw	69	;'E'
  1094     0579  342D               	retlw	45	;'-'
  1095     057A  3445               	retlw	69	;'E'
  1096     057B  344E               	retlw	78	;'N'
  1097     057C  3454               	retlw	84	;'T'
  1098     057D  3445               	retlw	69	;'E'
  1099     057E  3452               	retlw	82	;'R'
  1100     057F  3420               	retlw	32	;' '
  1101     0580  344E               	retlw	78	;'N'
  1102     0581  3445               	retlw	69	;'E'
  1103     0582  3457               	retlw	87	;'W'
  1104     0583  3420               	retlw	32	;' '
  1105     0584  3450               	retlw	80	;'P'
  1106     0585  3457               	retlw	87	;'W'
  1107     0586  3444               	retlw	68	;'D'
  1108     0587  3400               	retlw	0
  1109     0588                     STR_36:
  1110     0588  3445               	retlw	69	;'E'
  1111     0589  344E               	retlw	78	;'N'
  1112     058A  3454               	retlw	84	;'T'
  1113     058B  3445               	retlw	69	;'E'
  1114     058C  3452               	retlw	82	;'R'
  1115     058D  3420               	retlw	32	;' '
  1116     058E  344E               	retlw	78	;'N'
  1117     058F  3445               	retlw	69	;'E'
  1118     0590  3457               	retlw	87	;'W'
  1119     0591  3420               	retlw	32	;' '
  1120     0592  3450               	retlw	80	;'P'
  1121     0593  3441               	retlw	65	;'A'
  1122     0594  3453               	retlw	83	;'S'
  1123     0595  3453               	retlw	83	;'S'
  1124     0596  3457               	retlw	87	;'W'
  1125     0597  3444               	retlw	68	;'D'
  1126     0598  3400               	retlw	0
  1127     0599                     STR_40:
  1128     0599  3450               	retlw	80	;'P'
  1129     059A  3441               	retlw	65	;'A'
  1130     059B  3453               	retlw	83	;'S'
  1131     059C  3453               	retlw	83	;'S'
  1132     059D  3457               	retlw	87	;'W'
  1133     059E  3452               	retlw	82	;'R'
  1134     059F  3444               	retlw	68	;'D'
  1135     05A0  3420               	retlw	32	;' '
  1136     05A1  344D               	retlw	77	;'M'
  1137     05A2  3449               	retlw	73	;'I'
  1138     05A3  3453               	retlw	83	;'S'
  1139     05A4  344D               	retlw	77	;'M'
  1140     05A5  3441               	retlw	65	;'A'
  1141     05A6  3454               	retlw	84	;'T'
  1142     05A7  3443               	retlw	67	;'C'
  1143     05A8  3448               	retlw	72	;'H'
  1144     05A9  3400               	retlw	0
  1145     05AA                     STR_18:
  1146     05AA  3420               	retlw	32	;' '
  1147     05AB  3420               	retlw	32	;' '
  1148     05AC  3454               	retlw	84	;'T'
  1149     05AD  3449               	retlw	73	;'I'
  1150     05AE  344D               	retlw	77	;'M'
  1151     05AF  3445               	retlw	69	;'E'
  1152     05B0  3420               	retlw	32	;' '
  1153     05B1  3420               	retlw	32	;' '
  1154     05B2  3420               	retlw	32	;' '
  1155     05B3  3420               	retlw	32	;' '
  1156     05B4  3445               	retlw	69	;'E'
  1157     05B5  3456               	retlw	86	;'V'
  1158     05B6  3420               	retlw	32	;' '
  1159     05B7  3420               	retlw	32	;' '
  1160     05B8  3453               	retlw	83	;'S'
  1161     05B9  3450               	retlw	80	;'P'
  1162     05BA  3400               	retlw	0
  1163     05BB                     STR_28:
  1164     05BB  3423               	retlw	35	;'#'
  1165     05BC  3420               	retlw	32	;' '
  1166     05BD  3420               	retlw	32	;' '
  1167     05BE  3454               	retlw	84	;'T'
  1168     05BF  3449               	retlw	73	;'I'
  1169     05C0  344D               	retlw	77	;'M'
  1170     05C1  3445               	retlw	69	;'E'
  1171     05C2  3420               	retlw	32	;' '
  1172     05C3  3420               	retlw	32	;' '
  1173     05C4  3420               	retlw	32	;' '
  1174     05C5  3420               	retlw	32	;' '
  1175     05C6  3445               	retlw	69	;'E'
  1176     05C7  3420               	retlw	32	;' '
  1177     05C8  3420               	retlw	32	;' '
  1178     05C9  3453               	retlw	83	;'S'
  1179     05CA  3470               	retlw	112	;'p'
  1180     05CB  3400               	retlw	0
  1181     05CC                     STR_11:
  1182     05CC  3420               	retlw	32	;' '
  1183     05CD  3420               	retlw	32	;' '
  1184     05CE  3454               	retlw	84	;'T'
  1185     05CF  3469               	retlw	105	;'i'
  1186     05D0  346D               	retlw	109	;'m'
  1187     05D1  3465               	retlw	101	;'e'
  1188     05D2  3420               	retlw	32	;' '
  1189     05D3  3463               	retlw	99	;'c'
  1190     05D4  3468               	retlw	104	;'h'
  1191     05D5  3461               	retlw	97	;'a'
  1192     05D6  346E               	retlw	110	;'n'
  1193     05D7  3467               	retlw	103	;'g'
  1194     05D8  3465               	retlw	101	;'e'
  1195     05D9  3464               	retlw	100	;'d'
  1196     05DA  3420               	retlw	32	;' '
  1197     05DB  3420               	retlw	32	;' '
  1198     05DC  3400               	retlw	0
  1199     05DD                     STR_12:
  1200     05DD  3420               	retlw	32	;' '
  1201     05DE  3420               	retlw	32	;' '
  1202     05DF  3453               	retlw	83	;'S'
  1203     05E0  3475               	retlw	117	;'u'
  1204     05E1  3463               	retlw	99	;'c'
  1205     05E2  3463               	retlw	99	;'c'
  1206     05E3  3465               	retlw	101	;'e'
  1207     05E4  3473               	retlw	115	;'s'
  1208     05E5  3473               	retlw	115	;'s'
  1209     05E6  3466               	retlw	102	;'f'
  1210     05E7  3475               	retlw	117	;'u'
  1211     05E8  346C               	retlw	108	;'l'
  1212     05E9  346C               	retlw	108	;'l'
  1213     05EA  3479               	retlw	121	;'y'
  1214     05EB  3420               	retlw	32	;' '
  1215     05EC  3420               	retlw	32	;' '
  1216     05ED  3400               	retlw	0
  1217     05EE                     STR_35:
  1218     05EE  3454               	retlw	84	;'T'
  1219     05EF  3469               	retlw	105	;'i'
  1220     05F0  346D               	retlw	109	;'m'
  1221     05F1  3465               	retlw	101	;'e'
  1222     05F2  3420               	retlw	32	;' '
  1223     05F3  3428               	retlw	40	;'('
  1224     05F4  3448               	retlw	72	;'H'
  1225     05F5  3448               	retlw	72	;'H'
  1226     05F6  343A               	retlw	58	;':'
  1227     05F7  344D               	retlw	77	;'M'
  1228     05F8  344D               	retlw	77	;'M'
  1229     05F9  343A               	retlw	58	;':'
  1230     05FA  3453               	retlw	83	;'S'
  1231     05FB  3453               	retlw	83	;'S'
  1232     05FC  3429               	retlw	41	;')'
  1233     05FD  3400               	retlw	0
  1234     05FE                     STR_20:
  1235     05FE  3459               	retlw	89	;'Y'
  1236     05FF  346F               	retlw	111	;'o'
  1237     0600  3475               	retlw	117	;'u'
  1238     0601  3420               	retlw	32	;' '
  1239     0602  3461               	retlw	97	;'a'
  1240     0603  3472               	retlw	114	;'r'
  1241     0604  3465               	retlw	101	;'e'
  1242     0605  3420               	retlw	32	;' '
  1243     0606  3462               	retlw	98	;'b'
  1244     0607  346C               	retlw	108	;'l'
  1245     0608  346F               	retlw	111	;'o'
  1246     0609  3463               	retlw	99	;'c'
  1247     060A  346B               	retlw	107	;'k'
  1248     060B  3465               	retlw	101	;'e'
  1249     060C  3464               	retlw	100	;'d'
  1250     060D  3400               	retlw	0
  1251     060E                     STR_17:
  1252     060E  3443               	retlw	67	;'C'
  1253     060F  3468               	retlw	104	;'h'
  1254     0610  3461               	retlw	97	;'a'
  1255     0611  346E               	retlw	110	;'n'
  1256     0612  3467               	retlw	103	;'g'
  1257     0613  3465               	retlw	101	;'e'
  1258     0614  3420               	retlw	32	;' '
  1259     0615  3450               	retlw	80	;'P'
  1260     0616  3461               	retlw	97	;'a'
  1261     0617  3473               	retlw	115	;'s'
  1262     0618  3473               	retlw	115	;'s'
  1263     0619  3477               	retlw	119	;'w'
  1264     061A  346F               	retlw	111	;'o'
  1265     061B  3472               	retlw	114	;'r'
  1266     061C  3464               	retlw	100	;'d'
  1267     061D  3400               	retlw	0
  1268     061E                     STR_7:
  1269     061E  3455               	retlw	85	;'U'
  1270     061F  3441               	retlw	65	;'A'
  1271     0620  3452               	retlw	82	;'R'
  1272     0621  3454               	retlw	84	;'T'
  1273     0622  3420               	retlw	32	;' '
  1274     0623  3454               	retlw	84	;'T'
  1275     0624  3445               	retlw	69	;'E'
  1276     0625  3453               	retlw	83	;'S'
  1277     0626  3454               	retlw	84	;'T'
  1278     0627  3420               	retlw	32	;' '
  1279     0628  3443               	retlw	67	;'C'
  1280     0629  344F               	retlw	79	;'O'
  1281     062A  3444               	retlw	68	;'D'
  1282     062B  3445               	retlw	69	;'E'
  1283     062C  340A               	retlw	10
  1284     062D  3400               	retlw	0
  1285     062E                     STR_23:
  1286     062E  3457               	retlw	87	;'W'
  1287     062F  3452               	retlw	82	;'R'
  1288     0630  344F               	retlw	79	;'O'
  1289     0631  344E               	retlw	78	;'N'
  1290     0632  3447               	retlw	71	;'G'
  1291     0633  3420               	retlw	32	;' '
  1292     0634  3450               	retlw	80	;'P'
  1293     0635  3441               	retlw	65	;'A'
  1294     0636  3453               	retlw	83	;'S'
  1295     0637  3453               	retlw	83	;'S'
  1296     0638  3457               	retlw	87	;'W'
  1297     0639  344F               	retlw	79	;'O'
  1298     063A  3452               	retlw	82	;'R'
  1299     063B  3444               	retlw	68	;'D'
  1300     063C  3400               	retlw	0
  1301     063D                     STR_24:
  1302     063D  3420               	retlw	32	;' '
  1303     063E  3441               	retlw	65	;'A'
  1304     063F  3474               	retlw	116	;'t'
  1305     0640  3474               	retlw	116	;'t'
  1306     0641  3465               	retlw	101	;'e'
  1307     0642  346D               	retlw	109	;'m'
  1308     0643  3470               	retlw	112	;'p'
  1309     0644  3474               	retlw	116	;'t'
  1310     0645  3473               	retlw	115	;'s'
  1311     0646  3420               	retlw	32	;' '
  1312     0647  346C               	retlw	108	;'l'
  1313     0648  3465               	retlw	101	;'e'
  1314     0649  3466               	retlw	102	;'f'
  1315     064A  3474               	retlw	116	;'t'
  1316     064B  3400               	retlw	0
  1317     064C                     STR_10:
  1318     064C  3445               	retlw	69	;'E'
  1319     064D  344E               	retlw	78	;'N'
  1320     064E  3454               	retlw	84	;'T'
  1321     064F  3445               	retlw	69	;'E'
  1322     0650  3452               	retlw	82	;'R'
  1323     0651  3420               	retlw	32	;' '
  1324     0652  3450               	retlw	80	;'P'
  1325     0653  3441               	retlw	65	;'A'
  1326     0654  3453               	retlw	83	;'S'
  1327     0655  3453               	retlw	83	;'S'
  1328     0656  3457               	retlw	87	;'W'
  1329     0657  344F               	retlw	79	;'O'
  1330     0658  3452               	retlw	82	;'R'
  1331     0659  3444               	retlw	68	;'D'
  1332     065A  3400               	retlw	0
  1333     065B                     STR_31:
  1334     065B  3420               	retlw	32	;' '
  1335     065C  3420               	retlw	32	;' '
  1336     065D  3420               	retlw	32	;' '
  1337     065E  344E               	retlw	78	;'N'
  1338     065F  344F               	retlw	79	;'O'
  1339     0660  3420               	retlw	32	;' '
  1340     0661  344C               	retlw	76	;'L'
  1341     0662  344F               	retlw	79	;'O'
  1342     0663  3447               	retlw	71	;'G'
  1343     0664  3453               	retlw	83	;'S'
  1344     0665  3420               	retlw	32	;' '
  1345     0666  3420               	retlw	32	;' '
  1346     0667  3420               	retlw	32	;' '
  1347     0668  3400               	retlw	0
  1348     0669                     STR_32:
  1349     0669  3420               	retlw	32	;' '
  1350     066A  3420               	retlw	32	;' '
  1351     066B  3441               	retlw	65	;'A'
  1352     066C  3456               	retlw	86	;'V'
  1353     066D  3441               	retlw	65	;'A'
  1354     066E  3449               	retlw	73	;'I'
  1355     066F  344C               	retlw	76	;'L'
  1356     0670  3441               	retlw	65	;'A'
  1357     0671  3442               	retlw	66	;'B'
  1358     0672  344C               	retlw	76	;'L'
  1359     0673  3445               	retlw	69	;'E'
  1360     0674  3420               	retlw	32	;' '
  1361     0675  3420               	retlw	32	;' '
  1362     0676  3400               	retlw	0
  1363     0677                     STR_19:
  1364     0677  344C               	retlw	76	;'L'
  1365     0678  344F               	retlw	79	;'O'
  1366     0679  3447               	retlw	71	;'G'
  1367     067A  3449               	retlw	73	;'I'
  1368     067B  344E               	retlw	78	;'N'
  1369     067C  3420               	retlw	32	;' '
  1370     067D  3453               	retlw	83	;'S'
  1371     067E  3455               	retlw	85	;'U'
  1372     067F  3443               	retlw	67	;'C'
  1373     0680  3443               	retlw	67	;'C'
  1374     0681  3445               	retlw	69	;'E'
  1375     0682  3453               	retlw	83	;'S'
  1376     0683  3453               	retlw	83	;'S'
  1377     0684  3400               	retlw	0
  1378     0685                     STR_15:
  1379     0685  3444               	retlw	68	;'D'
  1380     0686  346F               	retlw	111	;'o'
  1381     0687  3477               	retlw	119	;'w'
  1382     0688  346E               	retlw	110	;'n'
  1383     0689  346C               	retlw	108	;'l'
  1384     068A  346F               	retlw	111	;'o'
  1385     068B  3461               	retlw	97	;'a'
  1386     068C  3464               	retlw	100	;'d'
  1387     068D  3420               	retlw	32	;' '
  1388     068E  344C               	retlw	76	;'L'
  1389     068F  346F               	retlw	111	;'o'
  1390     0690  3467               	retlw	103	;'g'
  1391     0691  3400               	retlw	0
  1392     0692                     STR_21:
  1393     0692  3477               	retlw	119	;'w'
  1394     0693  3461               	retlw	97	;'a'
  1395     0694  3469               	retlw	105	;'i'
  1396     0695  3474               	retlw	116	;'t'
  1397     0696  3420               	retlw	32	;' '
  1398     0697  3466               	retlw	102	;'f'
  1399     0698  346F               	retlw	111	;'o'
  1400     0699  3472               	retlw	114	;'r'
  1401     069A  3420               	retlw	32	;' '
  1402     069B  3400               	retlw	0
  1403     069C                     STR_14:
  1404     069C  3443               	retlw	67	;'C'
  1405     069D  346C               	retlw	108	;'l'
  1406     069E  3465               	retlw	101	;'e'
  1407     069F  3461               	retlw	97	;'a'
  1408     06A0  3472               	retlw	114	;'r'
  1409     06A1  3420               	retlw	32	;' '
  1410     06A2  344C               	retlw	76	;'L'
  1411     06A3  346F               	retlw	111	;'o'
  1412     06A4  3467               	retlw	103	;'g'
  1413     06A5  3400               	retlw	0
  1414     06A6                     STR_16:
  1415     06A6  3453               	retlw	83	;'S'
  1416     06A7  3465               	retlw	101	;'e'
  1417     06A8  3474               	retlw	116	;'t'
  1418     06A9  3420               	retlw	32	;' '
  1419     06AA  3454               	retlw	84	;'T'
  1420     06AB  3469               	retlw	105	;'i'
  1421     06AC  346D               	retlw	109	;'m'
  1422     06AD  3465               	retlw	101	;'e'
  1423     06AE  3400               	retlw	0
  1424     06AF                     STR_13:
  1425     06AF  3456               	retlw	86	;'V'
  1426     06B0  3469               	retlw	105	;'i'
  1427     06B1  3465               	retlw	101	;'e'
  1428     06B2  3477               	retlw	119	;'w'
  1429     06B3  3420               	retlw	32	;' '
  1430     06B4  344C               	retlw	76	;'L'
  1431     06B5  346F               	retlw	111	;'o'
  1432     06B6  3467               	retlw	103	;'g'
  1433     06B7  3400               	retlw	0
  1434     06B8                     STR_22:
  1435     06B8  3473               	retlw	115	;'s'
  1436     06B9  3465               	retlw	101	;'e'
  1437     06BA  3463               	retlw	99	;'c'
  1438     06BB  3473               	retlw	115	;'s'
  1439     06BC  3400               	retlw	0
  1440     06BD                     STR_8:
  1441     06BD  3431               	retlw	49	;'1'
  1442     06BE  3431               	retlw	49	;'1'
  1443     06BF  3431               	retlw	49	;'1'
  1444     06C0  3431               	retlw	49	;'1'
  1445     06C1  3400               	retlw	0
  1446     06C2                     STR_3:
  1447     06C2  3447               	retlw	71	;'G'
  1448     06C3  3431               	retlw	49	;'1'
  1449     06C4  3400               	retlw	0
  1450     06C5                     STR_4:
  1451     06C5  3447               	retlw	71	;'G'
  1452     06C6  3432               	retlw	50	;'2'
  1453     06C7  3400               	retlw	0
  1454     06C8                     STR_5:
  1455     06C8  3447               	retlw	71	;'G'
  1456     06C9  3433               	retlw	51	;'3'
  1457     06CA  3400               	retlw	0
  1458     06CB                     STR_6:
  1459     06CB  3447               	retlw	71	;'G'
  1460     06CC  3434               	retlw	52	;'4'
  1461     06CD  3400               	retlw	0
  1462     06CE                     STR_9:
  1463     06CE  3420               	retlw	32	;' '
  1464     06CF  3443               	retlw	67	;'C'
  1465     06D0  3400               	retlw	0
  1466     06D1                     STR_1:
  1467     06D1  3447               	retlw	71	;'G'
  1468     06D2  344E               	retlw	78	;'N'
  1469     06D3  3400               	retlw	0
  1470     06D4                     STR_2:
  1471     06D4  3447               	retlw	71	;'G'
  1472     06D5  3452               	retlw	82	;'R'
  1473     06D6  3400               	retlw	0
  1474     064C                     STR_25          equ	STR_10
  1475     0533                     STR_34          equ	STR_30
  1476     0533                     STR_39          equ	STR_30
  1477                           
  1478                           	psect	cinit
  1479     000F                     start_initialization:	
  1480                           ; #config settings
  1481                           
  1482     000F                     __initialization:
  1483                           
  1484                           ; Initialize objects allocated to BANK1
  1485     000F  1383               	bcf	3,7	;select IRP bank0
  1486     0010  30DE               	movlw	low (__pdataBANK1+22)
  1487     0011  00FD               	movwf	btemp+-1
  1488     0012  3012               	movlw	high __pidataBANK1
  1489     0013  00FE               	movwf	btemp
  1490     0014  30E2               	movlw	low __pidataBANK1
  1491     0015  00FF               	movwf	btemp+1
  1492     0016  30C8               	movlw	low __pdataBANK1
  1493     0017  0084               	movwf	4
  1494     0018  160A  118A  22AA  120A  118A  	fcall	init_ram0
  1495                           
  1496                           ; Initialize objects allocated to BANK0
  1497     001D  3066               	movlw	low (__pdataBANK0+5)
  1498     001E  00FD               	movwf	btemp+-1
  1499     001F  3004               	movlw	high __pidataBANK0
  1500     0020  00FE               	movwf	btemp
  1501     0021  30FB               	movlw	low __pidataBANK0
  1502     0022  00FF               	movwf	btemp+1
  1503     0023  3061               	movlw	low __pdataBANK0
  1504     0024  0084               	movwf	4
  1505     0025  160A  118A  22AA  120A  118A  	fcall	init_ram0
  1506                           
  1507                           ; Initialize objects allocated to COMMON
  1508     002A  160A  118A  2224  120A  118A  	fcall	__pidataCOMMON	;fetch initializer
  1509     002F  00F9               	movwf	__pdataCOMMON& (0+127)
  1510     0030  160A  118A  2225  120A  118A  	fcall	__pidataCOMMON+1	;fetch initializer
  1511     0035  00FA               	movwf	(__pdataCOMMON+1)& (0+127)
  1512                           
  1513                           ; Clear objects allocated to BANK1
  1514     0036  30A0               	movlw	low __pbssBANK1
  1515     0037  0084               	movwf	4
  1516     0038  30C8               	movlw	low (__pbssBANK1+40)
  1517     0039  160A  118A  2226  120A  118A  	fcall	clear_ram0
  1518                           
  1519                           ; Clear objects allocated to BANK0
  1520     003E  3020               	movlw	low __pbssBANK0
  1521     003F  0084               	movwf	4
  1522     0040  3045               	movlw	low (__pbssBANK0+37)
  1523     0041  160A  118A  2226  120A  118A  	fcall	clear_ram0
  1524                           
  1525                           ; Clear objects allocated to COMMON
  1526     0046  01F7               	clrf	__pbssCOMMON& (0+127)
  1527     0047  01F8               	clrf	(__pbssCOMMON+1)& (0+127)
  1528     0048                     end_of_initialization:	
  1529                           ;End of C runtime variable initialization code
  1530                           
  1531     0048                     __end_of__initialization:
  1532     0048  0183               	clrf	3
  1533     0049  120A  118A  284C   	ljmp	_main	;jump to C main() function
  1534                           
  1535                           	psect	bssCOMMON
  1536     0077                     __pbssCOMMON:
  1537     0077                     read_digital_keypad@long_press_flag:
  1538     0077                     	ds	1
  1539     0078                     _long_press:
  1540     0078                     	ds	1
  1541                           
  1542                           	psect	dataCOMMON
  1543     0079                     __pdataCOMMON:
  1544     0079                     read_digital_keypad@once:
  1545     0079                     	ds	1
  1546     007A                     _held_key:
  1547     007A                     	ds	1
  1548                           
  1549                           	psect	bssBANK0
  1550     0020                     __pbssBANK0:
  1551     0020                     _clock_reg:
  1552     0020                     	ds	3
  1553     0023                     isr@hold_count:
  1554     0023                     	ds	2
  1555     0025                     isr@count:
  1556     0025                     	ds	2
  1557     0027                     set_time@blink_delay:
  1558     0027                     	ds	2
  1559     0029                     set_time@blink:
  1560     0029                     	ds	2
  1561     002B                     change_password@j:
  1562     002B                     	ds	1
  1563     002C                     change_password@i:
  1564     002C                     	ds	1
  1565     002D                     set_time@j:
  1566     002D                     	ds	1
  1567     002E                     set_time@i:
  1568     002E                     	ds	1
  1569     002F                     view_log@log_pos:
  1570     002F                     	ds	1
  1571     0030                     menu_screen@menu_pos:
  1572     0030                     	ds	1
  1573     0031                     check_password@i:
  1574     0031                     	ds	1
  1575     0032                     check_password@attempts:
  1576     0032                     	ds	1
  1577     0033                     _wait_time:
  1578     0033                     	ds	1
  1579     0034                     _return_time:
  1580     0034                     	ds	1
  1581     0035                     _pos:
  1582     0035                     	ds	1
  1583     0036                     _newHr:
  1584     0036                     	ds	1
  1585     0037                     _newMin:
  1586     0037                     	ds	1
  1587     0038                     _newSec:
  1588     0038                     	ds	1
  1589     0039                     change_password@password_2:
  1590     0039                     	ds	4
  1591     003D                     change_password@password_1:
  1592     003D                     	ds	4
  1593     0041                     check_password@user_pass:
  1594     0041                     	ds	4
  1595                           
  1596                           	psect	dataBANK0
  1597     0061                     __pdataBANK0:
  1598     0061                     main@F1255:
  1599     0061                     	ds	3
  1600     0064                     _log_count:
  1601     0064                     	ds	1
  1602     0065                     read_digital_keypad@prev_key:
  1603     0065                     	ds	1
  1604                           
  1605                           	psect	bssBANK1
  1606     00A0                     __pbssBANK1:
  1607     00A0                     _saved_log:
  1608     00A0                     	ds	11
  1609     00AB                     _log:
  1610     00AB                     	ds	11
  1611     00B6                     set_time@newTime:
  1612     00B6                     	ds	7
  1613     00BD                     _time:
  1614     00BD                     	ds	7
  1615     00C4                     check_password@saved_pass:
  1616     00C4                     	ds	4
  1617                           
  1618                           	psect	dataBANK1
  1619     00C8                     __pdataBANK1:
  1620     00C8                     _gear:
  1621     00C8                     	ds	12
  1622     00D4                     _menu:
  1623     00D4                     	ds	10
  1624                           
  1625                           	psect	inittext
  1626     12A6                     init_fetch0:	
  1627                           ;	Called with low address in FSR and high address in W
  1628                           
  1629     12A6  087E               	movf	btemp,w
  1630     12A7  008A               	movwf	10
  1631     12A8  087F               	movf	btemp+1,w
  1632     12A9  0082               	movwf	2
  1633     12AA                     init_ram0:	
  1634                           ;Called with:
  1635                           ;	high address of idata address in btemp 
  1636                           ;	low address of idata address in btemp+1 
  1637                           ;	low address of data in FSR
  1638                           ;	high address + 1 of data in btemp-1
  1639                           
  1640     12AA  160A  118A  22A6  160A  118A  	fcall	init_fetch0
  1641     12AF  0080               	movwf	0
  1642     12B0  0A84               	incf	4,f
  1643     12B1  0804               	movf	4,w
  1644     12B2  067D               	xorwf	btemp+-1,w
  1645     12B3  1903               	btfsc	3,2
  1646     12B4  3400               	retlw	0
  1647     12B5  0AFF               	incf	btemp+1,f
  1648     12B6  1903               	btfsc	3,2
  1649     12B7  0AFE               	incf	btemp,f
  1650     12B8  2AAA               	goto	init_ram0
  1651                           
  1652                           	psect	clrtext
  1653     1226                     clear_ram0:	
  1654                           ;	Called with FSR containing the base address, and
  1655                           ;	W with the last address+1
  1656                           
  1657     1226  0064               	clrwdt	;clear the watchdog before getting into this loop
  1658     1227                     clrloop0:
  1659     1227  0180               	clrf	0	;clear RAM location pointed to by FSR
  1660     1228  0A84               	incf	4,f	;increment pointer
  1661     1229  0604               	xorwf	4,w	;XOR with final address
  1662     122A  1903               	btfsc	3,2	;have we reached the end yet?
  1663     122B  3400               	retlw	0	;all done for this memory range, return
  1664     122C  0604               	xorwf	4,w	;XOR again to restore value
  1665     122D  2A27               	goto	clrloop0	;do the next byte
  1666                           
  1667                           	psect	cstackBANK1
  1668     00DE                     __pcstackBANK1:
  1669     00DE                     main@wait:
  1670                           
  1671                           ; 2 bytes @ 0x0
  1672     00DE                     	ds	2
  1673     00E0                     main@view_return:
  1674                           
  1675                           ; 1 bytes @ 0x2
  1676     00E0                     	ds	1
  1677     00E1                     main@menu_pos:
  1678                           
  1679                           ; 1 bytes @ 0x3
  1680     00E1                     	ds	1
  1681     00E2                     main@event:
  1682                           
  1683                           ; 3 bytes @ 0x4
  1684     00E2                     	ds	3
  1685     00E5                     main@gr:
  1686                           
  1687                           ; 1 bytes @ 0x7
  1688     00E5                     	ds	1
  1689     00E6                     main@speed:
  1690                           
  1691                           ; 1 bytes @ 0x8
  1692     00E6                     	ds	1
  1693     00E7                     main@reset_flag:
  1694                           
  1695                           ; 1 bytes @ 0x9
  1696     00E7                     	ds	1
  1697     00E8                     main@screen_flag:
  1698                           
  1699                           ; 1 bytes @ 0xA
  1700     00E8                     	ds	1
  1701     00E9                     main@key:
  1702                           
  1703                           ; 1 bytes @ 0xB
  1704     00E9                     	ds	1
  1705                           
  1706                           	psect	cstackCOMMON
  1707     0070                     __pcstackCOMMON:
  1708     0070                     ?_read_ds1307:
  1709     0070                     ?_i2c_start:	
  1710                           ; 1 bytes @ 0x0
  1711                           
  1712     0070                     ?_i2c_rep_start:	
  1713                           ; 1 bytes @ 0x0
  1714                           
  1715     0070                     ?_i2c_read:	
  1716                           ; 1 bytes @ 0x0
  1717                           
  1718     0070                     ?_i2c_stop:	
  1719                           ; 1 bytes @ 0x0
  1720                           
  1721     0070                     ?_init_digital_keypad:	
  1722                           ; 1 bytes @ 0x0
  1723                           
  1724     0070                     ?_init_adc:	
  1725                           ; 1 bytes @ 0x0
  1726                           
  1727     0070                     ?_init_timer2:	
  1728                           ; 1 bytes @ 0x0
  1729                           
  1730     0070                     ?_read_digital_keypad:	
  1731                           ; 1 bytes @ 0x0
  1732                           
  1733     0070                     ?_clear_log:	
  1734                           ; 1 bytes @ 0x0
  1735                           
  1736     0070                     ?_download_log:	
  1737                           ; 1 bytes @ 0x0
  1738                           
  1739     0070                     ?_ext_eeprom_24C02_read:	
  1740                           ; 1 bytes @ 0x0
  1741                           
  1742     0070                     ?_putchar:	
  1743                           ; 1 bytes @ 0x0
  1744                           
  1745     0070                     ?_init_display_controller:	
  1746                           ; 1 bytes @ 0x0
  1747                           
  1748     0070                     ?_init_clcd:	
  1749                           ; 1 bytes @ 0x0
  1750                           
  1751     0070                     ?_clear_screen:	
  1752                           ; 1 bytes @ 0x0
  1753                           
  1754     0070                     ?_init_ds1307:	
  1755                           ; 1 bytes @ 0x0
  1756                           
  1757     0070                     ?_i2c_wait_for_idle:	
  1758                           ; 1 bytes @ 0x0
  1759                           
  1760     0070                     ?_init_config:	
  1761                           ; 1 bytes @ 0x0
  1762                           
  1763     0070                     ?_main:	
  1764                           ; 1 bytes @ 0x0
  1765                           
  1766     0070                     ?_get_time:	
  1767                           ; 1 bytes @ 0x0
  1768                           
  1769     0070                     ?_display_time:	
  1770                           ; 1 bytes @ 0x0
  1771                           
  1772     0070                     ?_get_log:	
  1773                           ; 1 bytes @ 0x0
  1774                           
  1775     0070                     ?_display_log:	
  1776                           ; 1 bytes @ 0x0
  1777                           
  1778     0070                     ?_display_uart:	
  1779                           ; 1 bytes @ 0x0
  1780                           
  1781     0070                     ?_isr:	
  1782                           ; 1 bytes @ 0x0
  1783                           
  1784     0070                     ?_i2c_write:	
  1785                           ; 1 bytes @ 0x0
  1786                           
  1787     0070                     ??_isr:	
  1788                           ; 2 bytes @ 0x0
  1789                           
  1790                           
  1791                           ; 1 bytes @ 0x0
  1792     0070                     	ds	2
  1793     0072                     isr@current:
  1794                           
  1795                           ; 1 bytes @ 0x2
  1796     0072                     	ds	1
  1797     0073                     ?_strcpy:
  1798     0073                     ?_strncpy:	
  1799                           ; 1 bytes @ 0x3
  1800                           
  1801     0073                     ?_clcd_write:	
  1802                           ; 1 bytes @ 0x3
  1803                           
  1804     0073                     ?___bmul:	
  1805                           ; 1 bytes @ 0x3
  1806                           
  1807     0073                     ?_read_adc:	
  1808                           ; 1 bytes @ 0x3
  1809                           
  1810     0073                     ?_strncmp:	
  1811                           ; 2 bytes @ 0x3
  1812                           
  1813     0073                     ?___awdiv:	
  1814                           ; 2 bytes @ 0x3
  1815                           
  1816     0073                     ?___awmod:	
  1817                           ; 2 bytes @ 0x3
  1818                           
  1819     0073                     clcd_write@mode:	
  1820                           ; 2 bytes @ 0x3
  1821                           
  1822     0073                     i2c_read@ack:	
  1823                           ; 1 bytes @ 0x3
  1824                           
  1825     0073                     i2c_write@data:	
  1826                           ; 1 bytes @ 0x3
  1827                           
  1828     0073                     read_digital_keypad@k:	
  1829                           ; 1 bytes @ 0x3
  1830                           
  1831     0073                     ___bmul@multiplicand:	
  1832                           ; 1 bytes @ 0x3
  1833                           
  1834     0073                     strcpy@dest:	
  1835                           ; 1 bytes @ 0x3
  1836                           
  1837     0073                     strncmp@l:	
  1838                           ; 1 bytes @ 0x3
  1839                           
  1840     0073                     strncpy@d:	
  1841                           ; 1 bytes @ 0x3
  1842                           
  1843     0073                     ___awdiv@divisor:	
  1844                           ; 1 bytes @ 0x3
  1845                           
  1846     0073                     ___awmod@divisor:	
  1847                           ; 2 bytes @ 0x3
  1848                           
  1849     0073                     ??_i2c_start:	
  1850                           ; 2 bytes @ 0x3
  1851                           
  1852     0073                     ??_i2c_write:	
  1853                           ; 1 bytes @ 0x3
  1854                           
  1855     0073                     ??_i2c_rep_start:	
  1856                           ; 1 bytes @ 0x3
  1857                           
  1858     0073                     ??_i2c_read:	
  1859                           ; 1 bytes @ 0x3
  1860                           
  1861     0073                     ??_i2c_stop:	
  1862                           ; 1 bytes @ 0x3
  1863                           
  1864     0073                     ??_init_digital_keypad:	
  1865                           ; 1 bytes @ 0x3
  1866                           
  1867     0073                     ??_init_adc:	
  1868                           ; 1 bytes @ 0x3
  1869                           
  1870     0073                     ??_init_timer2:	
  1871                           ; 1 bytes @ 0x3
  1872                           
  1873     0073                     ??_read_digital_keypad:	
  1874                           ; 1 bytes @ 0x3
  1875                           
  1876     0073                     ??_i2c_wait_for_idle:	
  1877                           ; 1 bytes @ 0x3
  1878                           
  1879     0073                     ??___lldiv:	
  1880                           ; 1 bytes @ 0x3
  1881                           
  1882                           
  1883                           ; 1 bytes @ 0x3
  1884     0073                     	ds	1
  1885     0074                     ?_ext_eeprom_24c02_byte_write:
  1886     0074                     i2c_read@data:	
  1887                           ; 1 bytes @ 0x4
  1888                           
  1889     0074                     read_digital_keypad@mode:	
  1890                           ; 1 bytes @ 0x4
  1891                           
  1892     0074                     ext_eeprom_24c02_byte_write@data:	
  1893                           ; 1 bytes @ 0x4
  1894                           
  1895     0074                     ___bmul@product:	
  1896                           ; 1 bytes @ 0x4
  1897                           
  1898     0074                     strncmp@r:	
  1899                           ; 1 bytes @ 0x4
  1900                           
  1901     0074                     strncpy@s:	
  1902                           ; 1 bytes @ 0x4
  1903                           
  1904     0074                     strcpy@src:	
  1905                           ; 1 bytes @ 0x4
  1906                           
  1907     0074                     ??_clcd_write:	
  1908                           ; 2 bytes @ 0x4
  1909                           
  1910     0074                     ??___bmul:	
  1911                           ; 1 bytes @ 0x4
  1912                           
  1913                           
  1914                           ; 1 bytes @ 0x4
  1915     0074                     	ds	1
  1916     0075                     read_ds1307@addr:
  1917     0075                     read_digital_keypad@current:	
  1918                           ; 1 bytes @ 0x5
  1919                           
  1920     0075                     ext_eeprom_24C02_read@addr:	
  1921                           ; 1 bytes @ 0x5
  1922                           
  1923     0075                     ext_eeprom_24c02_byte_write@addr:	
  1924                           ; 1 bytes @ 0x5
  1925                           
  1926     0075                     ___bmul@multiplier:	
  1927                           ; 1 bytes @ 0x5
  1928                           
  1929     0075                     ___awdiv@dividend:	
  1930                           ; 1 bytes @ 0x5
  1931                           
  1932     0075                     ___awmod@dividend:	
  1933                           ; 2 bytes @ 0x5
  1934                           
  1935     0075                     strncmp@n:	
  1936                           ; 2 bytes @ 0x5
  1937                           
  1938     0075                     strncpy@n:	
  1939                           ; 2 bytes @ 0x5
  1940                           
  1941     0075                     ??_read_ds1307:	
  1942                           ; 2 bytes @ 0x5
  1943                           
  1944     0075                     ??_read_adc:	
  1945                           ; 1 bytes @ 0x5
  1946                           
  1947     0075                     ??_ext_eeprom_24C02_read:	
  1948                           ; 1 bytes @ 0x5
  1949                           
  1950     0075                     ??_ext_eeprom_24c02_byte_write:	
  1951                           ; 1 bytes @ 0x5
  1952                           
  1953                           
  1954                           ; 1 bytes @ 0x5
  1955     0075                     	ds	1
  1956     0076                     clcd_write@byte:
  1957     0076                     read_ds1307@data:	
  1958                           ; 1 bytes @ 0x6
  1959                           
  1960     0076                     ext_eeprom_24C02_read@data:	
  1961                           ; 1 bytes @ 0x6
  1962                           
  1963     0076                     ext_eeprom_24c02_str_write@addr:	
  1964                           ; 1 bytes @ 0x6
  1965                           
  1966     0076                     strcpy@d:	
  1967                           ; 1 bytes @ 0x6
  1968                           
  1969     0076                     ??_ext_eeprom_24c02_str_write:	
  1970                           ; 1 bytes @ 0x6
  1971                           
  1972     0076                     ??___lwdiv:	
  1973                           ; 1 bytes @ 0x6
  1974                           
  1975                           
  1976                           ; 1 bytes @ 0x6
  1977     0076                     	ds	1
  1978     0077                     ??_write_ds1307:
  1979     0077                     ??_puts:	
  1980                           ; 1 bytes @ 0x7
  1981                           
  1982     0077                     ??_putchar:	
  1983                           ; 1 bytes @ 0x7
  1984                           
  1985     0077                     ??_init_clcd:	
  1986                           ; 1 bytes @ 0x7
  1987                           
  1988     0077                     ??_clcd_putch:	
  1989                           ; 1 bytes @ 0x7
  1990                           
  1991     0077                     ??_clcd_print:	
  1992                           ; 1 bytes @ 0x7
  1993                           
  1994     0077                     ??_init_ds1307:	
  1995                           ; 1 bytes @ 0x7
  1996                           
  1997     0077                     ??_init_config:	
  1998                           ; 1 bytes @ 0x7
  1999                           
  2000     0077                     ??_display_time:	
  2001                           ; 1 bytes @ 0x7
  2002                           
  2003     0077                     ??_get_log:	
  2004                           ; 1 bytes @ 0x7
  2005                           
  2006     0077                     ??___awdiv:	
  2007                           ; 1 bytes @ 0x7
  2008                           
  2009     0077                     ??___awmod:	
  2010                           ; 1 bytes @ 0x7
  2011                           
  2012                           
  2013                           	psect	cstackBANK0
  2014     0045                     __pcstackBANK0:	
  2015                           ; 1 bytes @ 0x7
  2016                           
  2017     0045                     ?_ext_eeprom_24c02_str_write:
  2018     0045                     ?_clcd_print:	
  2019                           ; 1 bytes @ 0x0
  2020                           
  2021     0045                     ?___lldiv:	
  2022                           ; 1 bytes @ 0x0
  2023                           
  2024     0045                     get_log@log_pos:	
  2025                           ; 4 bytes @ 0x0
  2026                           
  2027     0045                     read_adc@channel:	
  2028                           ; 1 bytes @ 0x0
  2029                           
  2030     0045                     ___awdiv@counter:	
  2031                           ; 1 bytes @ 0x0
  2032                           
  2033     0045                     ___awmod@counter:	
  2034                           ; 1 bytes @ 0x0
  2035                           
  2036     0045                     clcd_print@str:	
  2037                           ; 1 bytes @ 0x0
  2038                           
  2039     0045                     ext_eeprom_24c02_str_write@str:	
  2040                           ; 2 bytes @ 0x0
  2041                           
  2042     0045                     ___lldiv@divisor:	
  2043                           ; 2 bytes @ 0x0
  2044                           
  2045     0045                     ??_strcpy:	
  2046                           ; 4 bytes @ 0x0
  2047                           
  2048     0045                     ??_strncpy:	
  2049                           ; 1 bytes @ 0x0
  2050                           
  2051     0045                     ??_strncmp:	
  2052                           ; 1 bytes @ 0x0
  2053                           
  2054     0045                     ??_init_display_controller:	
  2055                           ; 1 bytes @ 0x0
  2056                           
  2057     0045                     ??_clear_screen:	
  2058                           ; 1 bytes @ 0x0
  2059                           
  2060     0045                     ??_get_time:	
  2061                           ; 1 bytes @ 0x0
  2062                           
  2063                           
  2064                           ; 1 bytes @ 0x0
  2065     0045                     	ds	1
  2066     0046                     get_log@addr:
  2067     0046                     ___awdiv@sign:	
  2068                           ; 1 bytes @ 0x1
  2069                           
  2070     0046                     ___awmod@sign:	
  2071                           ; 1 bytes @ 0x1
  2072                           
  2073     0046                     strncpy@cp:	
  2074                           ; 1 bytes @ 0x1
  2075                           
  2076     0046                     read_adc@reg_val:	
  2077                           ; 1 bytes @ 0x1
  2078                           
  2079                           
  2080                           ; 2 bytes @ 0x1
  2081     0046                     	ds	1
  2082     0047                     clcd_print@addr:
  2083     0047                     putchar@data:	
  2084                           ; 1 bytes @ 0x2
  2085                           
  2086     0047                     get_log@i:	
  2087                           ; 1 bytes @ 0x2
  2088                           
  2089     0047                     ___awdiv@quotient:	
  2090                           ; 2 bytes @ 0x2
  2091                           
  2092                           
  2093                           ; 2 bytes @ 0x2
  2094     0047                     	ds	1
  2095     0048                     ?_puts:
  2096     0048                     ?___lwdiv:	
  2097                           ; 1 bytes @ 0x3
  2098                           
  2099     0048                     puts@s:	
  2100                           ; 2 bytes @ 0x3
  2101                           
  2102     0048                     ___lwdiv@divisor:	
  2103                           ; 2 bytes @ 0x3
  2104                           
  2105     0048                     ??_clear_log:	
  2106                           ; 2 bytes @ 0x3
  2107                           
  2108     0048                     ??_display_uart:	
  2109                           ; 1 bytes @ 0x3
  2110                           
  2111                           
  2112                           ; 1 bytes @ 0x3
  2113     0048                     	ds	1
  2114     0049                     ?_write_ds1307:
  2115     0049                     ?_log_event:	
  2116                           ; 1 bytes @ 0x4
  2117                           
  2118     0049                     ?_clcd_putch:	
  2119                           ; 1 bytes @ 0x4
  2120                           
  2121     0049                     clcd_putch@addr:	
  2122                           ; 1 bytes @ 0x4
  2123                           
  2124     0049                     write_ds1307@data:	
  2125                           ; 1 bytes @ 0x4
  2126                           
  2127     0049                     log_event@event:	
  2128                           ; 1 bytes @ 0x4
  2129                           
  2130     0049                     ___lldiv@dividend:	
  2131                           ; 1 bytes @ 0x4
  2132                           
  2133                           
  2134                           ; 4 bytes @ 0x4
  2135     0049                     	ds	1
  2136     004A                     clcd_putch@data:
  2137     004A                     write_ds1307@addr:	
  2138                           ; 1 bytes @ 0x5
  2139                           
  2140     004A                     log_event@speed:	
  2141                           ; 1 bytes @ 0x5
  2142                           
  2143     004A                     display_uart@log_pos:	
  2144                           ; 1 bytes @ 0x5
  2145                           
  2146     004A                     ___lwdiv@dividend:	
  2147                           ; 1 bytes @ 0x5
  2148                           
  2149                           
  2150                           ; 2 bytes @ 0x5
  2151     004A                     	ds	1
  2152     004B                     ?_display_dashboard:
  2153     004B                     ?_check_password:	
  2154                           ; 1 bytes @ 0x6
  2155                           
  2156     004B                     ?_menu_screen:	
  2157                           ; 1 bytes @ 0x6
  2158                           
  2159     004B                     ?_change_password:	
  2160                           ; 1 bytes @ 0x6
  2161                           
  2162     004B                     ?_set_time:	
  2163                           ; 1 bytes @ 0x6
  2164                           
  2165     004B                     init_ds1307@dummy:	
  2166                           ; 1 bytes @ 0x6
  2167                           
  2168     004B                     display_dashboard@event:	
  2169                           ; 1 bytes @ 0x6
  2170                           
  2171     004B                     check_password@reset_flag:	
  2172                           ; 1 bytes @ 0x6
  2173                           
  2174     004B                     menu_screen@key:	
  2175                           ; 1 bytes @ 0x6
  2176                           
  2177     004B                     clear_log@reset_flag:	
  2178                           ; 1 bytes @ 0x6
  2179                           
  2180     004B                     set_time@key:	
  2181                           ; 1 bytes @ 0x6
  2182                           
  2183     004B                     change_password@key:	
  2184                           ; 1 bytes @ 0x6
  2185                           
  2186     004B                     ??_log_event:	
  2187                           ; 1 bytes @ 0x6
  2188                           
  2189     004B                     ??_download_log:	
  2190                           ; 1 bytes @ 0x6
  2191                           
  2192     004B                     ??_display_log:	
  2193                           ; 1 bytes @ 0x6
  2194                           
  2195                           
  2196                           ; 1 bytes @ 0x6
  2197     004B                     	ds	1
  2198     004C                     display_dashboard@speed:
  2199     004C                     ___lwdiv@counter:	
  2200                           ; 1 bytes @ 0x7
  2201                           
  2202     004C                     ??_check_password:	
  2203                           ; 1 bytes @ 0x7
  2204                           
  2205     004C                     ??_menu_screen:	
  2206                           ; 1 bytes @ 0x7
  2207                           
  2208     004C                     ??_change_password:	
  2209                           ; 1 bytes @ 0x7
  2210                           
  2211     004C                     ??_set_time:	
  2212                           ; 1 bytes @ 0x7
  2213                           
  2214                           
  2215                           ; 1 bytes @ 0x7
  2216     004C                     	ds	1
  2217     004D                     log_event@addr:
  2218     004D                     display_log@log_pos:	
  2219                           ; 1 bytes @ 0x8
  2220                           
  2221     004D                     ___lwdiv@quotient:	
  2222                           ; 1 bytes @ 0x8
  2223                           
  2224     004D                     ___lldiv@quotient:	
  2225                           ; 2 bytes @ 0x8
  2226                           
  2227     004D                     ??_display_dashboard:	
  2228                           ; 4 bytes @ 0x8
  2229                           
  2230                           
  2231                           ; 1 bytes @ 0x8
  2232     004D                     	ds	1
  2233     004E                     ?_view_log:
  2234     004E                     menu_screen@reset_flag:	
  2235                           ; 1 bytes @ 0x9
  2236                           
  2237     004E                     view_log@key:	
  2238                           ; 1 bytes @ 0x9
  2239                           
  2240     004E                     download_log@i:	
  2241                           ; 1 bytes @ 0x9
  2242                           
  2243     004E                     set_time@reset_flag:	
  2244                           ; 1 bytes @ 0x9
  2245                           
  2246                           
  2247                           ; 1 bytes @ 0x9
  2248     004E                     	ds	1
  2249     004F                     check_password@key:
  2250     004F                     change_password@reset_flag:	
  2251                           ; 1 bytes @ 0xA
  2252                           
  2253     004F                     ??_view_log:	
  2254                           ; 1 bytes @ 0xA
  2255                           
  2256                           
  2257                           ; 1 bytes @ 0xA
  2258     004F                     	ds	1
  2259     0050                     check_password@j:
  2260     0050                     change_password@i_409:	
  2261                           ; 1 bytes @ 0xB
  2262                           
  2263                           
  2264                           ; 1 bytes @ 0xB
  2265     0050                     	ds	1
  2266     0051                     ___lldiv@counter:
  2267                           
  2268                           ; 1 bytes @ 0xC
  2269     0051                     	ds	1
  2270     0052                     ?_init_uart:
  2271     0052                     ?_init_i2c:	
  2272                           ; 1 bytes @ 0xD
  2273                           
  2274     0052                     view_log@reset_flag:	
  2275                           ; 1 bytes @ 0xD
  2276                           
  2277     0052                     init_i2c@baud:	
  2278                           ; 1 bytes @ 0xD
  2279                           
  2280     0052                     init_uart@baud:	
  2281                           ; 4 bytes @ 0xD
  2282                           
  2283                           
  2284                           ; 4 bytes @ 0xD
  2285     0052                     	ds	4
  2286     0056                     ??_init_uart:
  2287     0056                     ??_init_i2c:	
  2288                           ; 1 bytes @ 0x11
  2289                           
  2290                           
  2291                           ; 1 bytes @ 0x11
  2292     0056                     	ds	4
  2293     005A                     ??_main:
  2294                           
  2295                           ; 1 bytes @ 0x15
  2296     005A                     	ds	7
  2297                           
  2298                           	psect	maintext
  2299     004C                     __pmaintext:	
  2300 ;;
  2301 ;;Main: autosize = 0, tempsize = 7, incstack = 0, save=0
  2302 ;;
  2303 ;; *************** function _main *****************
  2304 ;; Defined at:
  2305 ;;		line 64 in file "main.c"
  2306 ;; Parameters:    Size  Location     Type
  2307 ;;		None
  2308 ;; Auto vars:     Size  Location     Type
  2309 ;;  wait            2    0[BANK1 ] unsigned short 
  2310 ;;  event           3    4[BANK1 ] unsigned char [3]
  2311 ;;  key             1   11[BANK1 ] unsigned char 
  2312 ;;  screen_flag     1   10[BANK1 ] unsigned char 
  2313 ;;  reset_flag      1    9[BANK1 ] unsigned char 
  2314 ;;  speed           1    8[BANK1 ] unsigned char 
  2315 ;;  gr              1    7[BANK1 ] unsigned char 
  2316 ;;  menu_pos        1    3[BANK1 ] unsigned char 
  2317 ;;  view_return     1    2[BANK1 ] unsigned char 
  2318 ;;  delay           1    0        unsigned char 
  2319 ;;  pass_return     1    0        unsigned char 
  2320 ;; Return value:  Size  Location     Type
  2321 ;;                  1    wreg      void 
  2322 ;; Registers used:
  2323 ;;		wreg, fsr0l, fsr0h, status,2, status,0, pclath, btemp1, cstack
  2324 ;; Tracked objects:
  2325 ;;		On entry : B00/0
  2326 ;;		On exit  : 0/0
  2327 ;;		Unchanged: 0/0
  2328 ;; Data sizes:     COMMON   BANK0   BANK1   BANK3   BANK2
  2329 ;;      Params:         0       0       0       0       0
  2330 ;;      Locals:         0       0      12       0       0
  2331 ;;      Temps:          0       7       0       0       0
  2332 ;;      Totals:         0       7      12       0       0
  2333 ;;Total ram usage:       19 bytes
  2334 ;; Hardware stack levels required when called: 6
  2335 ;; This function calls:
  2336 ;;		___awdiv
  2337 ;;		___awmod
  2338 ;;		___lwdiv
  2339 ;;		_change_password
  2340 ;;		_check_password
  2341 ;;		_clcd_print
  2342 ;;		_clcd_write
  2343 ;;		_clear_log
  2344 ;;		_clear_screen
  2345 ;;		_display_dashboard
  2346 ;;		_download_log
  2347 ;;		_ext_eeprom_24c02_str_write
  2348 ;;		_init_config
  2349 ;;		_log_event
  2350 ;;		_menu_screen
  2351 ;;		_read_adc
  2352 ;;		_read_digital_keypad
  2353 ;;		_set_time
  2354 ;;		_strcpy
  2355 ;;		_view_log
  2356 ;;		_write_ds1307
  2357 ;; This function is called by:
  2358 ;;		Startup code after reset
  2359 ;; This function uses a non-reentrant model
  2360 ;;
  2361                           
  2362     004C                     _main:	
  2363                           ;psect for function _main
  2364                           
  2365     004C                     l4578:	
  2366                           ;incstack = 0
  2367                           ; Regs used in _main: [wreg-fsr0h+status,2+status,0+pclath+btemp1+cstack]
  2368                           
  2369                           
  2370                           ;main.c: 66:             reset_flag = 0x12;
  2371     004C  120A  118A  24B6  120A  118A  	fcall	_init_config
  2372     0051                     l4580:
  2373                           
  2374                           ;main.c: 68:             clcd_print("ENTER PASSWORD", (0x80 + 0));
  2375     0051  3001               	movlw	1
  2376     0052  1683               	bsf	3,5	;RP0=1, select bank1
  2377     0053  1303               	bcf	3,6	;RP1=0, select bank1
  2378     0054  00E8               	movwf	main@screen_flag^(0+128)
  2379     0055                     l4582:
  2380                           
  2381                           ;main.c: 69:             clcd_write((0xC0 + 4), 0);
  2382     0055  01E7               	clrf	main@reset_flag^(0+128)
  2383     0056                     l4584:
  2384     0056                     l4586:
  2385                           
  2386                           ;main.c: 72:         }
  2387     0056  1283               	bcf	3,5	;RP0=0, select bank0
  2388     0057  1303               	bcf	3,6	;RP1=0, select bank0
  2389     0058  0861               	movf	main@F1255,w
  2390     0059  1683               	bsf	3,5	;RP0=1, select bank1
  2391     005A  1303               	bcf	3,6	;RP1=0, select bank1
  2392     005B  00E2               	movwf	main@event^(0+128)
  2393     005C  1283               	bcf	3,5	;RP0=0, select bank0
  2394     005D  1303               	bcf	3,6	;RP1=0, select bank0
  2395     005E  0862               	movf	main@F1255+1,w
  2396     005F  1683               	bsf	3,5	;RP0=1, select bank1
  2397     0060  1303               	bcf	3,6	;RP1=0, select bank1
  2398     0061  00E3               	movwf	(main@event+1)^(0+128)
  2399     0062  1283               	bcf	3,5	;RP0=0, select bank0
  2400     0063  1303               	bcf	3,6	;RP1=0, select bank0
  2401     0064  0863               	movf	main@F1255+2,w
  2402     0065  1683               	bsf	3,5	;RP0=1, select bank1
  2403     0066  1303               	bcf	3,6	;RP1=0, select bank1
  2404     0067  00E4               	movwf	(main@event+2)^(0+128)
  2405     0068                     l4588:
  2406                           
  2407                           ;main.c: 73: ;main.c: 75: 
  2408     0068  01E5               	clrf	main@gr^(0+128)
  2409     0069                     l4590:
  2410     0069                     l4592:
  2411                           
  2412                           ;main.c: 78:                 case 0:;main.c: 79:                     clear_screen();;mai
      +                          n.c: 80:                     screen_flag = 0x04;;main.c: 83:                 case 1:
  2413     0069  30BD               	movlw	low (STR_8| (0+32768))
  2414     006A  1283               	bcf	3,5	;RP0=0, select bank0
  2415     006B  1303               	bcf	3,6	;RP1=0, select bank0
  2416     006C  00C5               	movwf	ext_eeprom_24c02_str_write@str
  2417     006D  3086               	movlw	high (STR_8| (0+32768))
  2418     006E  00C6               	movwf	ext_eeprom_24c02_str_write@str+1
  2419     006F  3000               	movlw	0
  2420     0070  160A  118A  243B  120A  118A  	fcall	_ext_eeprom_24c02_str_write
  2421     0075                     l4594:
  2422                           
  2423                           ;main.c: 87:                     break;
  2424     0075  300A               	movlw	10
  2425     0076  1283               	bcf	3,5	;RP0=0, select bank0
  2426     0077  1303               	bcf	3,6	;RP1=0, select bank0
  2427     0078  00C8               	movwf	___lwdiv@divisor
  2428     0079  3000               	movlw	0
  2429     007A  00C9               	movwf	___lwdiv@divisor+1
  2430     007B  3000               	movlw	0
  2431     007C  160A  118A  2357  120A  118A  	fcall	_read_adc
  2432     0081  0874               	movf	?_read_adc+1,w
  2433     0082  1283               	bcf	3,5	;RP0=0, select bank0
  2434     0083  1303               	bcf	3,6	;RP1=0, select bank0
  2435     0084  00CB               	movwf	___lwdiv@dividend+1
  2436     0085  0873               	movf	?_read_adc,w
  2437     0086  00CA               	movwf	___lwdiv@dividend
  2438     0087  160A  118A  259F  120A  118A  	fcall	___lwdiv
  2439     008C  1283               	bcf	3,5	;RP0=0, select bank0
  2440     008D  1303               	bcf	3,6	;RP1=0, select bank0
  2441     008E  0848               	movf	?___lwdiv,w
  2442     008F  1683               	bsf	3,5	;RP0=1, select bank1
  2443     0090  1303               	bcf	3,6	;RP1=0, select bank1
  2444     0091  00E6               	movwf	main@speed^(0+128)
  2445     0092                     l4596:
  2446                           
  2447                           ;main.c: 88:                 case 2:
  2448     0092  3064               	movlw	100
  2449     0093  0266               	subwf	main@speed^(0+128),w
  2450     0094  1C03               	skipc
  2451     0095  2897               	goto	u4631
  2452     0096  2898               	goto	u4630
  2453     0097                     u4631:
  2454     0097  289A               	goto	l4600
  2455     0098                     u4630:
  2456     0098                     l4598:
  2457                           
  2458                           ;main.c: 89:                     clear_screen();
  2459     0098  3063               	movlw	99
  2460     0099  00E6               	movwf	main@speed^(0+128)
  2461     009A                     l4600:
  2462                           
  2463                           ;main.c: 92:                     break;
  2464     009A  3001               	movlw	1
  2465     009B  120A  158A  2232  120A  118A  	fcall	_read_digital_keypad
  2466     00A0  1683               	bsf	3,5	;RP0=1, select bank1
  2467     00A1  1303               	bcf	3,6	;RP1=0, select bank1
  2468     00A2  00E9               	movwf	main@key^(0+128)
  2469     00A3                     l4602:
  2470                           
  2471                           ;main.c: 93:                 case 3:
  2472     00A3  3088               	movlw	136
  2473     00A4  00DE               	movwf	main@wait^(0+128)
  2474     00A5  3013               	movlw	19
  2475     00A6  00DF               	movwf	(main@wait^(0+128)+1)
  2476     00A7                     l4604:
  2477     00A7  3001               	movlw	1
  2478     00A8  02DE               	subwf	main@wait^(0+128),f
  2479     00A9  3000               	movlw	0
  2480     00AA  1C03               	skipc
  2481     00AB  03DF               	decf	(main@wait+1)^(0+128),f
  2482     00AC  02DF               	subwf	(main@wait+1)^(0+128),f
  2483     00AD  0A5E               	incf	main@wait^(0+128),w
  2484     00AE  1D03               	skipz
  2485     00AF  28B4               	goto	u4641
  2486     00B0  0A5F               	incf	(main@wait+1)^(0+128),w
  2487     00B1  1D03               	btfss	3,2
  2488     00B2  28B4               	goto	u4641
  2489     00B3  28B5               	goto	u4640
  2490     00B4                     u4641:
  2491     00B4  28A7               	goto	l4604
  2492     00B5                     u4640:
  2493     00B5                     l4606:
  2494                           
  2495                           ;main.c: 95:                     screen_flag = 0x08;
  2496     00B5  303E               	movlw	62
  2497     00B6  0669               	xorwf	main@key^(0+128),w
  2498     00B7  1D03               	btfss	3,2
  2499     00B8  28BA               	goto	u4651
  2500     00B9  28BB               	goto	u4650
  2501     00BA                     u4651:
  2502     00BA  28D6               	goto	l4610
  2503     00BB                     u4650:
  2504     00BB                     l4608:
  2505                           
  2506                           ;main.c: 96:                     reset_flag = 0x18;
  2507     00BB  30E2               	movlw	(low (main@event| 0))& (0+255)
  2508     00BC  00F3               	movwf	strcpy@dest
  2509     00BD  30CE               	movlw	low (STR_9| (0+32768))
  2510     00BE  00F4               	movwf	strcpy@src
  2511     00BF  3086               	movlw	high (STR_9| (0+32768))
  2512     00C0  00F5               	movwf	strcpy@src+1
  2513     00C1  160A  118A  2378  120A  118A  	fcall	_strcpy
  2514                           
  2515                           ;main.c: 98:                 case 4:
  2516     00C6  30E2               	movlw	(low (main@event| 0))& (0+255)
  2517     00C7  1283               	bcf	3,5	;RP0=0, select bank0
  2518     00C8  1303               	bcf	3,6	;RP1=0, select bank0
  2519     00C9  00C9               	movwf	log_event@event
  2520     00CA  1683               	bsf	3,5	;RP0=1, select bank1
  2521     00CB  1303               	bcf	3,6	;RP1=0, select bank1
  2522     00CC  0866               	movf	main@speed^(0+128),w
  2523     00CD  1283               	bcf	3,5	;RP0=0, select bank0
  2524     00CE  1303               	bcf	3,6	;RP1=0, select bank0
  2525     00CF  00CA               	movwf	log_event@speed
  2526     00D0  120A  158A  212A  120A  118A  	fcall	_log_event
  2527                           
  2528                           ;main.c: 99:                     clear_screen();
  2529     00D5  2964               	goto	l4648
  2530     00D6                     l4610:
  2531     00D6  303D               	movlw	61
  2532     00D7  0669               	xorwf	main@key^(0+128),w
  2533     00D8  1D03               	btfss	3,2
  2534     00D9  28DB               	goto	u4661
  2535     00DA  28DC               	goto	u4660
  2536     00DB                     u4661:
  2537     00DB  2909               	goto	l4620
  2538     00DC                     u4660:
  2539     00DC                     l4612:
  2540                           
  2541                           ;main.c: 100:                     screen_flag = 0x07;
  2542     00DC  3005               	movlw	5
  2543     00DD  0265               	subwf	main@gr^(0+128),w
  2544     00DE  1803               	skipnc
  2545     00DF  28E1               	goto	u4671
  2546     00E0  28E2               	goto	u4670
  2547     00E1                     u4671:
  2548     00E1  28E4               	goto	l4616
  2549     00E2                     u4670:
  2550     00E2                     l4614:
  2551                           
  2552                           ;main.c: 101:                     reset_flag = 0x17;
  2553     00E2  3001               	movlw	1
  2554     00E3  07E5               	addwf	main@gr^(0+128),f
  2555     00E4                     l4616:
  2556                           
  2557                           ;main.c: 102:                     break;
  2558     00E4  30E2               	movlw	(low (main@event| 0))& (0+255)
  2559     00E5  00F3               	movwf	strcpy@dest
  2560     00E6  0865               	movf	main@gr^(0+128),w
  2561     00E7  1283               	bcf	3,5	;RP0=0, select bank0
  2562     00E8  1303               	bcf	3,6	;RP1=0, select bank0
  2563     00E9  00DA               	movwf	??_main
  2564     00EA  075A               	addwf	??_main,w
  2565     00EB  3EC8               	addlw	(low (_gear| 0))& (0+255)
  2566     00EC  0084               	movwf	4
  2567     00ED  1383               	bcf	3,7	;select IRP bank1
  2568     00EE  0800               	movf	0,w
  2569     00EF  00F4               	movwf	strcpy@src
  2570     00F0  0A84               	incf	4,f
  2571     00F1  0800               	movf	0,w
  2572     00F2  0384               	decf	4,f
  2573     00F3  00F5               	movwf	strcpy@src+1
  2574     00F4  160A  118A  2378  120A  118A  	fcall	_strcpy
  2575     00F9                     l4618:
  2576                           
  2577                           ;main.c: 103:             }
  2578     00F9  30E2               	movlw	(low (main@event| 0))& (0+255)
  2579     00FA  1283               	bcf	3,5	;RP0=0, select bank0
  2580     00FB  1303               	bcf	3,6	;RP1=0, select bank0
  2581     00FC  00C9               	movwf	log_event@event
  2582     00FD  1683               	bsf	3,5	;RP0=1, select bank1
  2583     00FE  1303               	bcf	3,6	;RP1=0, select bank1
  2584     00FF  0866               	movf	main@speed^(0+128),w
  2585     0100  1283               	bcf	3,5	;RP0=0, select bank0
  2586     0101  1303               	bcf	3,6	;RP1=0, select bank0
  2587     0102  00CA               	movwf	log_event@speed
  2588     0103  120A  158A  212A  120A  118A  	fcall	_log_event
  2589                           
  2590                           ;main.c: 104:         } else if ((key == 0XB7 || key == 0x1F) && (screen_flag == 0x04)) 
      +                          {
  2591     0108  2964               	goto	l4648
  2592     0109                     l4620:
  2593     0109  303B               	movlw	59
  2594     010A  0669               	xorwf	main@key^(0+128),w
  2595     010B  1D03               	btfss	3,2
  2596     010C  290E               	goto	u4681
  2597     010D  290F               	goto	u4680
  2598     010E                     u4681:
  2599     010E  292C               	goto	l4630
  2600     010F                     u4680:
  2601     010F                     l4622:
  2602                           
  2603                           ;main.c: 105:             screen_flag = 0x02;
  2604     010F  0865               	movf	main@gr^(0+128),w
  2605     0110  1903               	btfsc	3,2
  2606     0111  2913               	goto	u4691
  2607     0112  2914               	goto	u4690
  2608     0113                     u4691:
  2609     0113  2916               	goto	l4626
  2610     0114                     u4690:
  2611     0114                     l4624:
  2612                           
  2613                           ;main.c: 106:             reset_flag = 0x13;
  2614     0114  3001               	movlw	1
  2615     0115  02E5               	subwf	main@gr^(0+128),f
  2616     0116                     l4626:
  2617                           
  2618                           ;main.c: 107:             clcd_write(0x0C, 0);
  2619     0116  30E2               	movlw	(low (main@event| 0))& (0+255)
  2620     0117  00F3               	movwf	strcpy@dest
  2621     0118  0865               	movf	main@gr^(0+128),w
  2622     0119  1283               	bcf	3,5	;RP0=0, select bank0
  2623     011A  1303               	bcf	3,6	;RP1=0, select bank0
  2624     011B  00DA               	movwf	??_main
  2625     011C  075A               	addwf	??_main,w
  2626     011D  3EC8               	addlw	(low (_gear| 0))& (0+255)
  2627     011E  0084               	movwf	4
  2628     011F  1383               	bcf	3,7	;select IRP bank1
  2629     0120  0800               	movf	0,w
  2630     0121  00F4               	movwf	strcpy@src
  2631     0122  0A84               	incf	4,f
  2632     0123  0800               	movf	0,w
  2633     0124  0384               	decf	4,f
  2634     0125  00F5               	movwf	strcpy@src+1
  2635     0126  160A  118A  2378  120A  118A  	fcall	_strcpy
  2636     012B  28F9               	goto	l4618
  2637     012C                     l4630:
  2638     012C  3037               	movlw	55
  2639     012D  0669               	xorwf	main@key^(0+128),w
  2640     012E  1903               	btfsc	3,2
  2641     012F  2931               	goto	u4701
  2642     0130  2932               	goto	u4700
  2643     0131                     u4701:
  2644     0131  2938               	goto	l4634
  2645     0132                     u4700:
  2646     0132                     l4632:
  2647     0132  302F               	movlw	47
  2648     0133  0669               	xorwf	main@key^(0+128),w
  2649     0134  1D03               	btfss	3,2
  2650     0135  2937               	goto	u4711
  2651     0136  2938               	goto	u4710
  2652     0137                     u4711:
  2653     0137  2964               	goto	l4648
  2654     0138                     u4710:
  2655     0138                     l4634:
  2656     0138  0368               	decf	main@screen_flag^(0+128),w
  2657     0139  1D03               	btfss	3,2
  2658     013A  293C               	goto	u4721
  2659     013B  293D               	goto	u4720
  2660     013C                     u4721:
  2661     013C  2964               	goto	l4648
  2662     013D                     u4720:
  2663     013D                     l4636:
  2664                           
  2665                           ;main.c: 110:             clcd_print("  Time changed  ", (0x80 + 0));
  2666     013D  3003               	movlw	3
  2667     013E  00E8               	movwf	main@screen_flag^(0+128)
  2668                           
  2669                           ;main.c: 111:             clcd_print("  Successfully  ", (0xC0 + 0));
  2670     013F  3012               	movlw	18
  2671     0140  00E7               	movwf	main@reset_flag^(0+128)
  2672     0141                     l4638:
  2673                           
  2674                           ;main.c: 112:             _delay((unsigned long)((1000)*(20000000/4000.0)));
  2675     0141  160A  118A  2281  120A  118A  	fcall	_clear_screen
  2676     0146                     l4640:
  2677                           
  2678                           ;main.c: 113:             clear_screen();
  2679     0146  304C               	movlw	low (STR_10| (0+32768))
  2680     0147  1283               	bcf	3,5	;RP0=0, select bank0
  2681     0148  1303               	bcf	3,6	;RP1=0, select bank0
  2682     0149  00C5               	movwf	clcd_print@str
  2683     014A  3086               	movlw	high (STR_10| (0+32768))
  2684     014B  00C6               	movwf	clcd_print@str+1
  2685     014C  3080               	movlw	128
  2686     014D  00C7               	movwf	clcd_print@addr
  2687     014E  160A  118A  24CC  120A  118A  	fcall	_clcd_print
  2688     0153                     l4642:
  2689                           
  2690                           ;main.c: 114:             screen_flag = 0x01;
  2691     0153  01F3               	clrf	clcd_write@mode
  2692     0154  30C4               	movlw	196
  2693     0155  160A  118A  2316  120A  118A  	fcall	_clcd_write
  2694     015A                     l4644:
  2695                           
  2696                           ;main.c: 115: 
  2697     015A  01F3               	clrf	clcd_write@mode
  2698     015B  300F               	movlw	15
  2699     015C  160A  118A  2316  120A  118A  	fcall	_clcd_write
  2700     0161                     l4646:
  2701                           
  2702                           ;main.c: 116:             write_ds1307(0x00, (newSec / 10 << 4) | (newSec % 10));
  2703     0161  1283               	bcf	3,5	;RP0=0, select bank0
  2704     0162  1303               	bcf	3,6	;RP1=0, select bank0
  2705     0163  1512               	bsf	18,2	;volatile
  2706     0164                     l4648:
  2707                           
  2708                           ;main.c: 119:         }
  2709     0164  30B7               	movlw	183
  2710     0165  1683               	bsf	3,5	;RP0=1, select bank1
  2711     0166  1303               	bcf	3,6	;RP1=0, select bank1
  2712     0167  0669               	xorwf	main@key^(0+128),w
  2713     0168  1903               	btfsc	3,2
  2714     0169  296B               	goto	u4731
  2715     016A  296C               	goto	u4730
  2716     016B                     u4731:
  2717     016B  2972               	goto	l4652
  2718     016C                     u4730:
  2719     016C                     l4650:
  2720     016C  301F               	movlw	31
  2721     016D  0669               	xorwf	main@key^(0+128),w
  2722     016E  1D03               	btfss	3,2
  2723     016F  2971               	goto	u4741
  2724     0170  2972               	goto	u4740
  2725     0171                     u4741:
  2726     0171  29C6               	goto	l4690
  2727     0172                     u4740:
  2728     0172                     l4652:
  2729     0172  3002               	movlw	2
  2730     0173  0668               	xorwf	main@screen_flag^(0+128),w
  2731     0174  1D03               	btfss	3,2
  2732     0175  2977               	goto	u4751
  2733     0176  2978               	goto	u4750
  2734     0177                     u4751:
  2735     0177  29C6               	goto	l4690
  2736     0178                     u4750:
  2737     0178  29B5               	goto	l4688
  2738     0179                     l4656:
  2739                           
  2740                           ;main.c: 124:         }
  2741     0179  160A  118A  2281  120A  118A  	fcall	_clear_screen
  2742     017E                     l4658:
  2743                           
  2744                           ;main.c: 125: 
  2745     017E  3004               	movlw	4
  2746     017F  1683               	bsf	3,5	;RP0=1, select bank1
  2747     0180  1303               	bcf	3,6	;RP1=0, select bank1
  2748     0181  00E8               	movwf	main@screen_flag^(0+128)
  2749     0182                     l4660:
  2750                           
  2751                           ;main.c: 126: 
  2752     0182  3014               	movlw	20
  2753     0183  00E7               	movwf	main@reset_flag^(0+128)
  2754                           
  2755                           ;main.c: 127:         switch (screen_flag) {
  2756     0184  2BE4               	goto	l4796
  2757     0185                     l4662:
  2758                           
  2759                           ;main.c: 129:                 display_dashboard(event, speed);
  2760     0185  160A  118A  2281  120A  118A  	fcall	_clear_screen
  2761     018A                     l4664:
  2762                           
  2763                           ;main.c: 130:                 break;
  2764     018A  3005               	movlw	5
  2765     018B  1683               	bsf	3,5	;RP0=1, select bank1
  2766     018C  1303               	bcf	3,6	;RP1=0, select bank1
  2767     018D  00E8               	movwf	main@screen_flag^(0+128)
  2768     018E                     l4666:
  2769                           
  2770                           ;main.c: 131:             case 0x03:
  2771     018E  3015               	movlw	21
  2772     018F  00E7               	movwf	main@reset_flag^(0+128)
  2773                           
  2774                           ;main.c: 132:                 switch (check_password(key, reset_flag)) {
  2775     0190  2BE4               	goto	l4796
  2776     0191                     l4668:
  2777                           
  2778                           ;main.c: 134:                         screen_flag = 0x01;
  2779     0191  160A  118A  2281  120A  118A  	fcall	_clear_screen
  2780     0196                     l4670:
  2781                           
  2782                           ;main.c: 135:                         clear_screen();
  2783     0196  3006               	movlw	6
  2784     0197  1683               	bsf	3,5	;RP0=1, select bank1
  2785     0198  1303               	bcf	3,6	;RP1=0, select bank1
  2786     0199  00E8               	movwf	main@screen_flag^(0+128)
  2787     019A                     l4672:
  2788                           
  2789                           ;main.c: 136:                         clcd_write(0x0C, 0);
  2790     019A  3016               	movlw	22
  2791     019B  00E7               	movwf	main@reset_flag^(0+128)
  2792                           
  2793                           ;main.c: 137:                         TMR2ON = 0;
  2794     019C  2BE4               	goto	l4796
  2795     019D                     l4674:
  2796                           
  2797                           ;main.c: 139:                     case 0xA0:
  2798     019D  160A  118A  2281  120A  118A  	fcall	_clear_screen
  2799     01A2                     l4676:
  2800                           
  2801                           ;main.c: 140:                         screen_flag = 0x02;
  2802     01A2  3008               	movlw	8
  2803     01A3  1683               	bsf	3,5	;RP0=1, select bank1
  2804     01A4  1303               	bcf	3,6	;RP1=0, select bank1
  2805     01A5  00E8               	movwf	main@screen_flag^(0+128)
  2806     01A6                     l4678:
  2807                           
  2808                           ;main.c: 141:                         reset_flag = 0x13;
  2809     01A6  3018               	movlw	24
  2810     01A7  00E7               	movwf	main@reset_flag^(0+128)
  2811                           
  2812                           ;main.c: 142:                         clear_screen();
  2813     01A8  2BE4               	goto	l4796
  2814     01A9                     l4680:
  2815                           
  2816                           ;main.c: 144:                         TMR2ON = 1;
  2817     01A9  160A  118A  2281  120A  118A  	fcall	_clear_screen
  2818     01AE                     l4682:
  2819                           
  2820                           ;main.c: 145:                         break;
  2821     01AE  3007               	movlw	7
  2822     01AF  1683               	bsf	3,5	;RP0=1, select bank1
  2823     01B0  1303               	bcf	3,6	;RP1=0, select bank1
  2824     01B1  00E8               	movwf	main@screen_flag^(0+128)
  2825     01B2                     l4684:
  2826                           
  2827                           ;main.c: 146:                 }
  2828     01B2  3017               	movlw	23
  2829     01B3  00E7               	movwf	main@reset_flag^(0+128)
  2830                           
  2831                           ;main.c: 147:                 break;
  2832     01B4  2BE4               	goto	l4796
  2833     01B5                     l4688:
  2834     01B5  0861               	movf	main@menu_pos^(0+128),w
  2835                           
  2836                           ; Switch size 1, requested type "simple"
  2837                           ; Number of cases is 5, Range of values is 0 to 4
  2838                           ; switch strategies available:
  2839                           ; Name         Instructions Cycles
  2840                           ; simple_byte           16     9 (average)
  2841                           ; direct_byte           23     8 (fixed)
  2842                           ; jumptable            260     6 (fixed)
  2843                           ;	Chosen strategy is simple_byte
  2844     01B6  3A00               	xorlw	0	; case 0
  2845     01B7  1903               	skipnz
  2846     01B8  2979               	goto	l4656
  2847     01B9  3A01               	xorlw	1	; case 1
  2848     01BA  1903               	skipnz
  2849     01BB  2985               	goto	l4662
  2850     01BC  3A03               	xorlw	3	; case 2
  2851     01BD  1903               	skipnz
  2852     01BE  2991               	goto	l4668
  2853     01BF  3A01               	xorlw	1	; case 3
  2854     01C0  1903               	skipnz
  2855     01C1  299D               	goto	l4674
  2856     01C2  3A07               	xorlw	7	; case 4
  2857     01C3  1903               	skipnz
  2858     01C4  29A9               	goto	l4680
  2859     01C5  2BE4               	goto	l4796
  2860     01C6                     l4690:
  2861     01C6  30B7               	movlw	183
  2862     01C7  0669               	xorwf	main@key^(0+128),w
  2863     01C8  1903               	btfsc	3,2
  2864     01C9  29CB               	goto	u4761
  2865     01CA  29CC               	goto	u4760
  2866     01CB                     u4761:
  2867     01CB  29D2               	goto	l4694
  2868     01CC                     u4760:
  2869     01CC                     l4692:
  2870     01CC  301F               	movlw	31
  2871     01CD  0669               	xorwf	main@key^(0+128),w
  2872     01CE  1D03               	btfss	3,2
  2873     01CF  29D1               	goto	u4771
  2874     01D0  29D2               	goto	u4770
  2875     01D1                     u4771:
  2876     01D1  29E4               	goto	l4700
  2877     01D2                     u4770:
  2878     01D2                     l4694:
  2879     01D2  3004               	movlw	4
  2880     01D3  0668               	xorwf	main@screen_flag^(0+128),w
  2881     01D4  1D03               	btfss	3,2
  2882     01D5  29D7               	goto	u4781
  2883     01D6  29D8               	goto	u4780
  2884     01D7                     u4781:
  2885     01D7  29E4               	goto	l4700
  2886     01D8                     u4780:
  2887     01D8                     l4696:
  2888                           
  2889                           ;main.c: 150:                 if (menu_pos == 0xA1) {
  2890     01D8  3002               	movlw	2
  2891     01D9  00E8               	movwf	main@screen_flag^(0+128)
  2892                           
  2893                           ;main.c: 151:                     screen_flag = 0x01;
  2894     01DA  3013               	movlw	19
  2895     01DB  00E7               	movwf	main@reset_flag^(0+128)
  2896     01DC                     l4698:
  2897                           
  2898                           ;main.c: 152:                     clear_screen();
  2899     01DC  01F3               	clrf	clcd_write@mode
  2900     01DD  300C               	movlw	12
  2901     01DE  160A  118A  2316  120A  118A  	fcall	_clcd_write
  2902                           
  2903                           ;main.c: 153:                     clcd_write(0x0C, 0);
  2904     01E3  2BE4               	goto	l4796
  2905     01E4                     l4700:
  2906     01E4  30B7               	movlw	183
  2907     01E5  0669               	xorwf	main@key^(0+128),w
  2908     01E6  1903               	btfsc	3,2
  2909     01E7  29E9               	goto	u4791
  2910     01E8  29EA               	goto	u4790
  2911     01E9                     u4791:
  2912     01E9  29F0               	goto	l4704
  2913     01EA                     u4790:
  2914     01EA                     l4702:
  2915     01EA  301F               	movlw	31
  2916     01EB  0669               	xorwf	main@key^(0+128),w
  2917     01EC  1D03               	btfss	3,2
  2918     01ED  29EF               	goto	u4801
  2919     01EE  29F0               	goto	u4800
  2920     01EF                     u4801:
  2921     01EF  2AE4               	goto	l4724
  2922     01F0                     u4800:
  2923     01F0                     l4704:
  2924     01F0  3008               	movlw	8
  2925     01F1  0668               	xorwf	main@screen_flag^(0+128),w
  2926     01F2  1D03               	btfss	3,2
  2927     01F3  29F5               	goto	u4811
  2928     01F4  29F6               	goto	u4810
  2929     01F5                     u4811:
  2930     01F5  2AE4               	goto	l4724
  2931     01F6                     u4810:
  2932     01F6                     l4706:
  2933                           
  2934                           ;main.c: 154:                     TMR2ON = 1;
  2935     01F6  01F3               	clrf	clcd_write@mode
  2936     01F7  300C               	movlw	12
  2937     01F8  160A  118A  2316  120A  118A  	fcall	_clcd_write
  2938     01FD                     l4708:
  2939                           
  2940                           ;main.c: 155:                 }
  2941     01FD  30CC               	movlw	low (STR_11| (0+32768))
  2942     01FE  1283               	bcf	3,5	;RP0=0, select bank0
  2943     01FF  1303               	bcf	3,6	;RP1=0, select bank0
  2944     0200  00C5               	movwf	clcd_print@str
  2945     0201  3085               	movlw	high (STR_11| (0+32768))
  2946     0202  00C6               	movwf	clcd_print@str+1
  2947     0203  3080               	movlw	128
  2948     0204  00C7               	movwf	clcd_print@addr
  2949     0205  160A  118A  24CC  120A  118A  	fcall	_clcd_print
  2950     020A                     l4710:
  2951                           
  2952                           ;main.c: 156:                 break;
  2953     020A  30DD               	movlw	low (STR_12| (0+32768))
  2954     020B  1283               	bcf	3,5	;RP0=0, select bank0
  2955     020C  1303               	bcf	3,6	;RP1=0, select bank0
  2956     020D  00C5               	movwf	clcd_print@str
  2957     020E  3085               	movlw	high (STR_12| (0+32768))
  2958     020F  00C6               	movwf	clcd_print@str+1
  2959     0210  30C0               	movlw	192
  2960     0211  00C7               	movwf	clcd_print@addr
  2961     0212  160A  118A  24CC  120A  118A  	fcall	_clcd_print
  2962     0217                     l4712:
  2963                           
  2964                           ;main.c: 157: 
  2965     0217  301A               	movlw	26
  2966     0218  1283               	bcf	3,5	;RP0=0, select bank0
  2967     0219  1303               	bcf	3,6	;RP1=0, select bank0
  2968     021A  00DC               	movwf	??_main+2
  2969     021B  305E               	movlw	94
  2970     021C  00DB               	movwf	??_main+1
  2971     021D  306D               	movlw	109
  2972     021E  00DA               	movwf	??_main
  2973     021F                     u4907:
  2974     021F  0BDA               	decfsz	??_main,f
  2975     0220  2A1F               	goto	u4907
  2976     0221  0BDB               	decfsz	??_main+1,f
  2977     0222  2A1F               	goto	u4907
  2978     0223  0BDC               	decfsz	??_main+2,f
  2979     0224  2A1F               	goto	u4907
  2980     0225  2A26               	nop2
  2981     0226                     l4714:
  2982                           
  2983                           ;main.c: 158:             case 0x04:
  2984     0226  160A  118A  2281  120A  118A  	fcall	_clear_screen
  2985     022B                     l4716:
  2986                           
  2987                           ;main.c: 159:                 view_return = view_log(reset_flag, key);
  2988     022B  3001               	movlw	1
  2989     022C  1683               	bsf	3,5	;RP0=1, select bank1
  2990     022D  1303               	bcf	3,6	;RP1=0, select bank1
  2991     022E  00E8               	movwf	main@screen_flag^(0+128)
  2992     022F                     l4718:
  2993                           
  2994                           ;main.c: 161:                     screen_flag = 0x02;
  2995     022F  300A               	movlw	10
  2996     0230  00F3               	movwf	___awmod@divisor
  2997     0231  3000               	movlw	0
  2998     0232  00F4               	movwf	___awmod@divisor+1
  2999     0233  1283               	bcf	3,5	;RP0=0, select bank0
  3000     0234  1303               	bcf	3,6	;RP1=0, select bank0
  3001     0235  0838               	movf	_newSec,w
  3002     0236  00DA               	movwf	??_main
  3003     0237  01DB               	clrf	??_main+1
  3004     0238  085A               	movf	??_main,w
  3005     0239  00F5               	movwf	___awmod@dividend
  3006     023A  085B               	movf	??_main+1,w
  3007     023B  00F6               	movwf	___awmod@dividend+1
  3008     023C  120A  158A  2006  120A  118A  	fcall	___awmod
  3009     0241  0873               	movf	?___awmod,w
  3010     0242  1283               	bcf	3,5	;RP0=0, select bank0
  3011     0243  1303               	bcf	3,6	;RP1=0, select bank0
  3012     0244  00DC               	movwf	??_main+2
  3013     0245  0874               	movf	?___awmod+1,w
  3014     0246  00DD               	movwf	??_main+3
  3015     0247  300A               	movlw	10
  3016     0248  00F3               	movwf	___awdiv@divisor
  3017     0249  3000               	movlw	0
  3018     024A  00F4               	movwf	___awdiv@divisor+1
  3019     024B  0838               	movf	_newSec,w
  3020     024C  00DE               	movwf	??_main+4
  3021     024D  01DF               	clrf	??_main+5
  3022     024E  085E               	movf	??_main+4,w
  3023     024F  00F5               	movwf	___awdiv@dividend
  3024     0250  085F               	movf	??_main+5,w
  3025     0251  00F6               	movwf	___awdiv@dividend+1
  3026     0252  120A  158A  205F  120A  118A  	fcall	___awdiv
  3027     0257  0873               	movf	?___awdiv,w
  3028     0258  1283               	bcf	3,5	;RP0=0, select bank0
  3029     0259  1303               	bcf	3,6	;RP1=0, select bank0
  3030     025A  00E0               	movwf	??_main+6
  3031     025B  3003               	movlw	3
  3032     025C                     u4825:
  3033     025C  1003               	clrc
  3034     025D  0DE0               	rlf	??_main+6,f
  3035     025E  3EFF               	addlw	-1
  3036     025F  1D03               	skipz
  3037     0260  2A5C               	goto	u4825
  3038     0261  1003               	clrc
  3039     0262  0D60               	rlf	??_main+6,w
  3040     0263  045C               	iorwf	??_main+2,w
  3041     0264  00C9               	movwf	write_ds1307@data
  3042     0265  3000               	movlw	0
  3043     0266  160A  118A  2399  120A  118A  	fcall	_write_ds1307
  3044     026B                     l4720:
  3045                           
  3046                           ;main.c: 162:                     reset_flag = 0x13;
  3047     026B  300A               	movlw	10
  3048     026C  00F3               	movwf	___awmod@divisor
  3049     026D  3000               	movlw	0
  3050     026E  00F4               	movwf	___awmod@divisor+1
  3051     026F  1283               	bcf	3,5	;RP0=0, select bank0
  3052     0270  1303               	bcf	3,6	;RP1=0, select bank0
  3053     0271  0837               	movf	_newMin,w
  3054     0272  00DA               	movwf	??_main
  3055     0273  01DB               	clrf	??_main+1
  3056     0274  085A               	movf	??_main,w
  3057     0275  00F5               	movwf	___awmod@dividend
  3058     0276  085B               	movf	??_main+1,w
  3059     0277  00F6               	movwf	___awmod@dividend+1
  3060     0278  120A  158A  2006  120A  118A  	fcall	___awmod
  3061     027D  0873               	movf	?___awmod,w
  3062     027E  1283               	bcf	3,5	;RP0=0, select bank0
  3063     027F  1303               	bcf	3,6	;RP1=0, select bank0
  3064     0280  00DC               	movwf	??_main+2
  3065     0281  0874               	movf	?___awmod+1,w
  3066     0282  00DD               	movwf	??_main+3
  3067     0283  300A               	movlw	10
  3068     0284  00F3               	movwf	___awdiv@divisor
  3069     0285  3000               	movlw	0
  3070     0286  00F4               	movwf	___awdiv@divisor+1
  3071     0287  0837               	movf	_newMin,w
  3072     0288  00DE               	movwf	??_main+4
  3073     0289  01DF               	clrf	??_main+5
  3074     028A  085E               	movf	??_main+4,w
  3075     028B  00F5               	movwf	___awdiv@dividend
  3076     028C  085F               	movf	??_main+5,w
  3077     028D  00F6               	movwf	___awdiv@dividend+1
  3078     028E  120A  158A  205F  120A  118A  	fcall	___awdiv
  3079     0293  0873               	movf	?___awdiv,w
  3080     0294  1283               	bcf	3,5	;RP0=0, select bank0
  3081     0295  1303               	bcf	3,6	;RP1=0, select bank0
  3082     0296  00E0               	movwf	??_main+6
  3083     0297  3003               	movlw	3
  3084     0298                     u4835:
  3085     0298  1003               	clrc
  3086     0299  0DE0               	rlf	??_main+6,f
  3087     029A  3EFF               	addlw	-1
  3088     029B  1D03               	skipz
  3089     029C  2A98               	goto	u4835
  3090     029D  1003               	clrc
  3091     029E  0D60               	rlf	??_main+6,w
  3092     029F  045C               	iorwf	??_main+2,w
  3093     02A0  00C9               	movwf	write_ds1307@data
  3094     02A1  3001               	movlw	1
  3095     02A2  160A  118A  2399  120A  118A  	fcall	_write_ds1307
  3096     02A7                     l4722:
  3097                           
  3098                           ;main.c: 163:                     clear_screen();
  3099     02A7  300A               	movlw	10
  3100     02A8  00F3               	movwf	___awmod@divisor
  3101     02A9  3000               	movlw	0
  3102     02AA  00F4               	movwf	___awmod@divisor+1
  3103     02AB  1283               	bcf	3,5	;RP0=0, select bank0
  3104     02AC  1303               	bcf	3,6	;RP1=0, select bank0
  3105     02AD  0836               	movf	_newHr,w
  3106     02AE  00DA               	movwf	??_main
  3107     02AF  01DB               	clrf	??_main+1
  3108     02B0  085A               	movf	??_main,w
  3109     02B1  00F5               	movwf	___awmod@dividend
  3110     02B2  085B               	movf	??_main+1,w
  3111     02B3  00F6               	movwf	___awmod@dividend+1
  3112     02B4  120A  158A  2006  120A  118A  	fcall	___awmod
  3113     02B9  0873               	movf	?___awmod,w
  3114     02BA  1283               	bcf	3,5	;RP0=0, select bank0
  3115     02BB  1303               	bcf	3,6	;RP1=0, select bank0
  3116     02BC  00DC               	movwf	??_main+2
  3117     02BD  0874               	movf	?___awmod+1,w
  3118     02BE  00DD               	movwf	??_main+3
  3119     02BF  300A               	movlw	10
  3120     02C0  00F3               	movwf	___awdiv@divisor
  3121     02C1  3000               	movlw	0
  3122     02C2  00F4               	movwf	___awdiv@divisor+1
  3123     02C3  0836               	movf	_newHr,w
  3124     02C4  00DE               	movwf	??_main+4
  3125     02C5  01DF               	clrf	??_main+5
  3126     02C6  085E               	movf	??_main+4,w
  3127     02C7  00F5               	movwf	___awdiv@dividend
  3128     02C8  085F               	movf	??_main+5,w
  3129     02C9  00F6               	movwf	___awdiv@dividend+1
  3130     02CA  120A  158A  205F  120A  118A  	fcall	___awdiv
  3131     02CF  0873               	movf	?___awdiv,w
  3132     02D0  1283               	bcf	3,5	;RP0=0, select bank0
  3133     02D1  1303               	bcf	3,6	;RP1=0, select bank0
  3134     02D2  00E0               	movwf	??_main+6
  3135     02D3  3003               	movlw	3
  3136     02D4                     u4845:
  3137     02D4  1003               	clrc
  3138     02D5  0DE0               	rlf	??_main+6,f
  3139     02D6  3EFF               	addlw	-1
  3140     02D7  1D03               	skipz
  3141     02D8  2AD4               	goto	u4845
  3142     02D9  1003               	clrc
  3143     02DA  0D60               	rlf	??_main+6,w
  3144     02DB  045C               	iorwf	??_main+2,w
  3145     02DC  00C9               	movwf	write_ds1307@data
  3146     02DD  3002               	movlw	2
  3147     02DE  160A  118A  2399  120A  118A  	fcall	_write_ds1307
  3148                           
  3149                           ;main.c: 164:                 }
  3150     02E3  2BE4               	goto	l4796
  3151     02E4                     l4724:
  3152     02E4  30AF               	movlw	175
  3153     02E5  0669               	xorwf	main@key^(0+128),w
  3154     02E6  1D03               	btfss	3,2
  3155     02E7  2AE9               	goto	u4851
  3156     02E8  2AEA               	goto	u4850
  3157     02E9                     u4851:
  3158     02E9  2BE4               	goto	l4796
  3159     02EA                     u4850:
  3160     02EA                     l4726:
  3161     02EA  3004               	movlw	4
  3162     02EB  0668               	xorwf	main@screen_flag^(0+128),w
  3163     02EC  1903               	btfsc	3,2
  3164     02ED  2AEF               	goto	u4861
  3165     02EE  2AF0               	goto	u4860
  3166     02EF                     u4861:
  3167     02EF  2AF6               	goto	l223
  3168     02F0                     u4860:
  3169     02F0                     l4728:
  3170     02F0  3008               	movlw	8
  3171     02F1  0668               	xorwf	main@screen_flag^(0+128),w
  3172     02F2  1D03               	btfss	3,2
  3173     02F3  2AF5               	goto	u4871
  3174     02F4  2AF6               	goto	u4870
  3175     02F5                     u4871:
  3176     02F5  2BE4               	goto	l4796
  3177     02F6                     u4870:
  3178     02F6                     l223:
  3179                           
  3180                           ;main.c: 166:             case 0x05:
  3181     02F6  3001               	movlw	1
  3182     02F7  00E8               	movwf	main@screen_flag^(0+128)
  3183     02F8                     l4730:
  3184                           
  3185                           ;main.c: 167:                 clear_log(reset_flag);
  3186     02F8  160A  118A  2281  120A  118A  	fcall	_clear_screen
  3187                           
  3188                           ;main.c: 168:                 screen_flag = 0x02;
  3189     02FD  01F3               	clrf	clcd_write@mode
  3190     02FE  300C               	movlw	12
  3191     02FF  160A  118A  2316  120A  118A  	fcall	_clcd_write
  3192     0304  2BE4               	goto	l4796
  3193     0305                     l4732:
  3194                           
  3195                           ;main.c: 174:                 screen_flag = 0x02;
  3196     0305  30E2               	movlw	(low (main@event| 0))& (0+255)
  3197     0306  1283               	bcf	3,5	;RP0=0, select bank0
  3198     0307  1303               	bcf	3,6	;RP1=0, select bank0
  3199     0308  00CB               	movwf	display_dashboard@event
  3200     0309  1683               	bsf	3,5	;RP0=1, select bank1
  3201     030A  1303               	bcf	3,6	;RP1=0, select bank1
  3202     030B  0866               	movf	main@speed^(0+128),w
  3203     030C  1283               	bcf	3,5	;RP0=0, select bank0
  3204     030D  1303               	bcf	3,6	;RP1=0, select bank0
  3205     030E  00CC               	movwf	display_dashboard@speed
  3206     030F  160A  118A  2682  120A  118A  	fcall	_display_dashboard
  3207                           
  3208                           ;main.c: 175:                 reset_flag = 0x13;
  3209     0314  2C00               	goto	l4798
  3210     0315                     l229:	
  3211                           ;main.c: 178:             case 0x07:
  3212                           
  3213                           
  3214                           ;main.c: 179:                 switch (change_password(reset_flag, key)) {
  3215     0315  3001               	movlw	1
  3216     0316  1683               	bsf	3,5	;RP0=1, select bank1
  3217     0317  1303               	bcf	3,6	;RP1=0, select bank1
  3218     0318  00E8               	movwf	main@screen_flag^(0+128)
  3219     0319                     l4734:
  3220                           
  3221                           ;main.c: 180:                     case 0xA1:
  3222     0319  160A  118A  2281  120A  118A  	fcall	_clear_screen
  3223                           
  3224                           ;main.c: 181:                         screen_flag = 0x02;
  3225     031E  01F3               	clrf	clcd_write@mode
  3226     031F  300C               	movlw	12
  3227     0320  160A  118A  2316  120A  118A  	fcall	_clcd_write
  3228     0325                     l4736:
  3229                           
  3230                           ;main.c: 182:                         reset_flag = 0x13;
  3231     0325  1283               	bcf	3,5	;RP0=0, select bank0
  3232     0326  1303               	bcf	3,6	;RP1=0, select bank0
  3233     0327  1112               	bcf	18,2	;volatile
  3234                           
  3235                           ;main.c: 183:                         clear_screen();
  3236     0328  2C00               	goto	l4798
  3237     0329                     l231:	
  3238                           ;main.c: 184:                         clcd_write(0x0C, 0);
  3239                           
  3240                           
  3241                           ;main.c: 185:                         TMR2ON = 1;
  3242     0329  3002               	movlw	2
  3243     032A  1683               	bsf	3,5	;RP0=1, select bank1
  3244     032B  1303               	bcf	3,6	;RP1=0, select bank1
  3245     032C  00E8               	movwf	main@screen_flag^(0+128)
  3246     032D                     l4738:
  3247                           
  3248                           ;main.c: 187:                     case 0xA0:
  3249     032D  160A  118A  2281  120A  118A  	fcall	_clear_screen
  3250                           
  3251                           ;main.c: 188:                         screen_flag = 0x02;
  3252     0332  01F3               	clrf	clcd_write@mode
  3253     0333  300C               	movlw	12
  3254     0334  160A  118A  2316  120A  118A  	fcall	_clcd_write
  3255     0339                     l4740:
  3256                           
  3257                           ;main.c: 189:                         reset_flag = 0x13;
  3258     0339  1283               	bcf	3,5	;RP0=0, select bank0
  3259     033A  1303               	bcf	3,6	;RP1=0, select bank0
  3260     033B  1512               	bsf	18,2	;volatile
  3261                           
  3262                           ;main.c: 190:                         clear_screen();
  3263     033C  2C00               	goto	l4798
  3264     033D                     l4744:
  3265     033D  0867               	movf	main@reset_flag^(0+128),w
  3266     033E  1283               	bcf	3,5	;RP0=0, select bank0
  3267     033F  1303               	bcf	3,6	;RP1=0, select bank0
  3268     0340  00CB               	movwf	check_password@reset_flag
  3269     0341  1683               	bsf	3,5	;RP0=1, select bank1
  3270     0342  1303               	bcf	3,6	;RP1=0, select bank1
  3271     0343  0869               	movf	main@key^(0+128),w
  3272     0344  120A  158A  24B8  120A  118A  	fcall	_check_password
  3273                           
  3274                           ; Switch size 1, requested type "simple"
  3275                           ; Number of cases is 2, Range of values is 160 to 161
  3276                           ; switch strategies available:
  3277                           ; Name         Instructions Cycles
  3278                           ; simple_byte            7     4 (average)
  3279                           ; direct_byte           17    11 (fixed)
  3280                           ; jumptable            263     9 (fixed)
  3281                           ;	Chosen strategy is simple_byte
  3282     0349  3AA0               	xorlw	160	; case 160
  3283     034A  1903               	skipnz
  3284     034B  2B29               	goto	l231
  3285     034C  3A01               	xorlw	1	; case 161
  3286     034D  1903               	skipnz
  3287     034E  2B15               	goto	l229
  3288     034F  2C00               	goto	l4798
  3289     0350                     l4746:
  3290                           
  3291                           ;main.c: 194:                 }
  3292     0350  0869               	movf	main@key^(0+128),w
  3293     0351  1283               	bcf	3,5	;RP0=0, select bank0
  3294     0352  1303               	bcf	3,6	;RP1=0, select bank0
  3295     0353  00CB               	movwf	menu_screen@key
  3296     0354  1683               	bsf	3,5	;RP0=1, select bank1
  3297     0355  1303               	bcf	3,6	;RP1=0, select bank1
  3298     0356  0867               	movf	main@reset_flag^(0+128),w
  3299     0357  120A  118A  2407  120A  118A  	fcall	_menu_screen
  3300     035C  1683               	bsf	3,5	;RP0=1, select bank1
  3301     035D  1303               	bcf	3,6	;RP1=0, select bank1
  3302     035E  00E1               	movwf	main@menu_pos^(0+128)
  3303     035F                     l4748:
  3304                           
  3305                           ;main.c: 195:                 break;
  3306     035F  30A1               	movlw	161
  3307     0360  0661               	xorwf	main@menu_pos^(0+128),w
  3308     0361  1D03               	btfss	3,2
  3309     0362  2B64               	goto	u4881
  3310     0363  2B65               	goto	u4880
  3311     0364                     u4881:
  3312     0364  2C00               	goto	l4798
  3313     0365                     u4880:
  3314     0365                     l4750:
  3315                           
  3316                           ;main.c: 196:             case 0x08:
  3317     0365  3001               	movlw	1
  3318     0366  00E8               	movwf	main@screen_flag^(0+128)
  3319     0367                     l4752:
  3320                           
  3321                           ;main.c: 197:                 set_time(reset_flag, key);
  3322     0367  160A  118A  2281  120A  118A  	fcall	_clear_screen
  3323                           
  3324                           ;main.c: 198:                 break;
  3325     036C  01F3               	clrf	clcd_write@mode
  3326     036D  300C               	movlw	12
  3327     036E  160A  118A  2316  120A  118A  	fcall	_clcd_write
  3328     0373  2B39               	goto	l4740
  3329     0374                     l4756:
  3330                           
  3331                           ;main.c: 204: }
  3332     0374  0869               	movf	main@key^(0+128),w
  3333     0375  1283               	bcf	3,5	;RP0=0, select bank0
  3334     0376  1303               	bcf	3,6	;RP1=0, select bank0
  3335     0377  00CE               	movwf	view_log@key
  3336     0378  1683               	bsf	3,5	;RP0=1, select bank1
  3337     0379  1303               	bcf	3,6	;RP1=0, select bank1
  3338     037A  0867               	movf	main@reset_flag^(0+128),w
  3339     037B  120A  158A  21A9  120A  118A  	fcall	_view_log
  3340     0380  1683               	bsf	3,5	;RP0=1, select bank1
  3341     0381  1303               	bcf	3,6	;RP1=0, select bank1
  3342     0382  00E0               	movwf	main@view_return^(0+128)
  3343     0383                     l4758:
  3344     0383  30A1               	movlw	161
  3345     0384  0660               	xorwf	main@view_return^(0+128),w
  3346     0385  1D03               	btfss	3,2
  3347     0386  2B88               	goto	u4891
  3348     0387  2B89               	goto	u4890
  3349     0388                     u4891:
  3350     0388  2C00               	goto	l4798
  3351     0389                     u4890:
  3352     0389                     l4760:
  3353     0389  3002               	movlw	2
  3354     038A  00E8               	movwf	main@screen_flag^(0+128)
  3355     038B                     l4762:
  3356     038B  160A  118A  2281  120A  118A  	fcall	_clear_screen
  3357     0390  2C00               	goto	l4798
  3358     0391                     l4764:
  3359     0391  0867               	movf	main@reset_flag^(0+128),w
  3360     0392  160A  118A  24FF  120A  118A  	fcall	_clear_log
  3361     0397                     l4766:
  3362     0397  3002               	movlw	2
  3363     0398  1683               	bsf	3,5	;RP0=1, select bank1
  3364     0399  1303               	bcf	3,6	;RP1=0, select bank1
  3365     039A  00E8               	movwf	main@screen_flag^(0+128)
  3366     039B                     l4768:
  3367     039B  2B8B               	goto	l4762
  3368     039C                     l4772:
  3369     039C  120A  118A  2788  120A  118A  	fcall	_download_log
  3370     03A1  2B97               	goto	l4766
  3371     03A2                     l240:
  3372     03A2  3002               	movlw	2
  3373     03A3  1683               	bsf	3,5	;RP0=1, select bank1
  3374     03A4  1303               	bcf	3,6	;RP1=0, select bank1
  3375     03A5  00E8               	movwf	main@screen_flag^(0+128)
  3376     03A6                     l4780:
  3377     03A6  160A  118A  2281  120A  118A  	fcall	_clear_screen
  3378     03AB  01F3               	clrf	clcd_write@mode
  3379     03AC  300C               	movlw	12
  3380     03AD  160A  118A  2316  120A  118A  	fcall	_clcd_write
  3381     03B2  2B39               	goto	l4740
  3382     03B3                     l242:
  3383     03B3  3002               	movlw	2
  3384     03B4  1683               	bsf	3,5	;RP0=1, select bank1
  3385     03B5  1303               	bcf	3,6	;RP1=0, select bank1
  3386     03B6  00E8               	movwf	main@screen_flag^(0+128)
  3387     03B7                     l4784:
  3388     03B7  160A  118A  2281  120A  118A  	fcall	_clear_screen
  3389     03BC  01F3               	clrf	clcd_write@mode
  3390     03BD  300C               	movlw	12
  3391     03BE  160A  118A  2316  120A  118A  	fcall	_clcd_write
  3392     03C3  2B39               	goto	l4740
  3393     03C4                     l4790:
  3394     03C4  0869               	movf	main@key^(0+128),w
  3395     03C5  1283               	bcf	3,5	;RP0=0, select bank0
  3396     03C6  1303               	bcf	3,6	;RP1=0, select bank0
  3397     03C7  00CB               	movwf	change_password@key
  3398     03C8  1683               	bsf	3,5	;RP0=1, select bank1
  3399     03C9  1303               	bcf	3,6	;RP1=0, select bank1
  3400     03CA  0867               	movf	main@reset_flag^(0+128),w
  3401     03CB  120A  158A  2361  120A  118A  	fcall	_change_password
  3402                           
  3403                           ; Switch size 1, requested type "simple"
  3404                           ; Number of cases is 2, Range of values is 160 to 161
  3405                           ; switch strategies available:
  3406                           ; Name         Instructions Cycles
  3407                           ; simple_byte            7     4 (average)
  3408                           ; direct_byte           17    11 (fixed)
  3409                           ; jumptable            263     9 (fixed)
  3410                           ;	Chosen strategy is simple_byte
  3411     03D0  3AA0               	xorlw	160	; case 160
  3412     03D1  1903               	skipnz
  3413     03D2  2BB3               	goto	l242
  3414     03D3  3A01               	xorlw	1	; case 161
  3415     03D4  1903               	skipnz
  3416     03D5  2BA2               	goto	l240
  3417     03D6  2C00               	goto	l4798
  3418     03D7                     l4792:
  3419     03D7  0869               	movf	main@key^(0+128),w
  3420     03D8  1283               	bcf	3,5	;RP0=0, select bank0
  3421     03D9  1303               	bcf	3,6	;RP1=0, select bank0
  3422     03DA  00CB               	movwf	set_time@key
  3423     03DB  1683               	bsf	3,5	;RP0=1, select bank1
  3424     03DC  1303               	bcf	3,6	;RP1=0, select bank1
  3425     03DD  0867               	movf	main@reset_flag^(0+128),w
  3426     03DE  120A  158A  2655  120A  118A  	fcall	_set_time
  3427     03E3  2C00               	goto	l4798
  3428     03E4                     l4796:
  3429     03E4  1683               	bsf	3,5	;RP0=1, select bank1
  3430     03E5  1303               	bcf	3,6	;RP1=0, select bank1
  3431     03E6  0868               	movf	main@screen_flag^(0+128),w
  3432                           
  3433                           ; Switch size 1, requested type "simple"
  3434                           ; Number of cases is 8, Range of values is 1 to 8
  3435                           ; switch strategies available:
  3436                           ; Name         Instructions Cycles
  3437                           ; simple_byte           25    13 (average)
  3438                           ; direct_byte           35    11 (fixed)
  3439                           ; jumptable            263     9 (fixed)
  3440                           ;	Chosen strategy is simple_byte
  3441     03E7  3A01               	xorlw	1	; case 1
  3442     03E8  1903               	skipnz
  3443     03E9  2B05               	goto	l4732
  3444     03EA  3A03               	xorlw	3	; case 2
  3445     03EB  1903               	skipnz
  3446     03EC  2B50               	goto	l4746
  3447     03ED  3A01               	xorlw	1	; case 3
  3448     03EE  1903               	skipnz
  3449     03EF  2B3D               	goto	l4744
  3450     03F0  3A07               	xorlw	7	; case 4
  3451     03F1  1903               	skipnz
  3452     03F2  2B74               	goto	l4756
  3453     03F3  3A01               	xorlw	1	; case 5
  3454     03F4  1903               	skipnz
  3455     03F5  2B91               	goto	l4764
  3456     03F6  3A03               	xorlw	3	; case 6
  3457     03F7  1903               	skipnz
  3458     03F8  2B9C               	goto	l4772
  3459     03F9  3A01               	xorlw	1	; case 7
  3460     03FA  1903               	skipnz
  3461     03FB  2BC4               	goto	l4790
  3462     03FC  3A0F               	xorlw	15	; case 8
  3463     03FD  1903               	skipnz
  3464     03FE  2BD7               	goto	l4792
  3465     03FF  2C00               	goto	l4798
  3466     0400                     l4798:
  3467     0400  1683               	bsf	3,5	;RP0=1, select bank1
  3468     0401  1303               	bcf	3,6	;RP1=0, select bank1
  3469     0402  01E7               	clrf	main@reset_flag^(0+128)
  3470     0403  2875               	goto	l4594
  3471     0404  120A  118A  280C   	ljmp	start
  3472     0407                     __end_of_main:
  3473                           
  3474                           	psect	text1
  3475     09A9                     __ptext1:	
  3476 ;; *************** function _view_log *****************
  3477 ;; Defined at:
  3478 ;;		line 264 in file "helper.c"
  3479 ;; Parameters:    Size  Location     Type
  3480 ;;  reset_flag      1    wreg     unsigned char 
  3481 ;;  key             1    9[BANK0 ] unsigned char 
  3482 ;; Auto vars:     Size  Location     Type
  3483 ;;  reset_flag      1   13[BANK0 ] unsigned char 
  3484 ;; Return value:  Size  Location     Type
  3485 ;;                  1    wreg      unsigned char 
  3486 ;; Registers used:
  3487 ;;		wreg, fsr0l, fsr0h, status,2, status,0, pclath, btemp1, cstack
  3488 ;; Tracked objects:
  3489 ;;		On entry : 0/0
  3490 ;;		On exit  : 0/0
  3491 ;;		Unchanged: 0/0
  3492 ;; Data sizes:     COMMON   BANK0   BANK1   BANK3   BANK2
  3493 ;;      Params:         0       1       0       0       0
  3494 ;;      Locals:         0       1       0       0       0
  3495 ;;      Temps:          0       3       0       0       0
  3496 ;;      Totals:         0       5       0       0       0
  3497 ;;Total ram usage:        5 bytes
  3498 ;; Hardware stack levels used: 1
  3499 ;; Hardware stack levels required when called: 3
  3500 ;; This function calls:
  3501 ;;		_clcd_print
  3502 ;;		_clear_screen
  3503 ;;		_display_log
  3504 ;; This function is called by:
  3505 ;;		_main
  3506 ;; This function uses a non-reentrant model
  3507 ;;
  3508                           
  3509     09A9                     _view_log:	
  3510                           ;psect for function _view_log
  3511                           
  3512                           
  3513                           ;incstack = 0
  3514                           ; Regs used in _view_log: [wreg-fsr0h+status,2+status,0+pclath+btemp1+cstack]
  3515                           ;view_log@reset_flag stored from wreg
  3516     09A9  1283               	bcf	3,5	;RP0=0, select bank0
  3517     09AA  1303               	bcf	3,6	;RP1=0, select bank0
  3518     09AB  00D2               	movwf	view_log@reset_flag
  3519     09AC                     l4284:
  3520                           
  3521                           ;helper.c: 266:     static unsigned char log_pos;;helper.c: 268:     if (reset_flag == 0
      +                          x14) {
  3522     09AC  3014               	movlw	20
  3523     09AD  0652               	xorwf	view_log@reset_flag,w
  3524     09AE  1D03               	btfss	3,2
  3525     09AF  29B1               	goto	u4231
  3526     09B0  29B2               	goto	u4230
  3527     09B1                     u4231:
  3528     09B1  29F7               	goto	l4306
  3529     09B2                     u4230:
  3530     09B2                     l4286:
  3531                           
  3532                           ;helper.c: 269:         clear_screen();
  3533     09B2  160A  118A  2281  120A  158A  	fcall	_clear_screen
  3534     09B7                     l4288:
  3535                           
  3536                           ;helper.c: 270:         return_time = 5;
  3537     09B7  3005               	movlw	5
  3538     09B8  1283               	bcf	3,5	;RP0=0, select bank0
  3539     09B9  1303               	bcf	3,6	;RP1=0, select bank0
  3540     09BA  00B4               	movwf	_return_time
  3541     09BB                     l4290:
  3542                           
  3543                           ;helper.c: 271:         if (log_count == -1) {
  3544     09BB  0A64               	incf	_log_count,w
  3545     09BC  1D03               	btfss	3,2
  3546     09BD  29BF               	goto	u4241
  3547     09BE  29C0               	goto	u4240
  3548     09BF                     u4241:
  3549     09BF  29E9               	goto	l4302
  3550     09C0                     u4240:
  3551     09C0                     l4292:
  3552                           
  3553                           ;helper.c: 272:             clcd_print("     NO LOGS    ", (0x80 + 0));
  3554     09C0  3000               	movlw	low (STR_26| (0+32768))
  3555     09C1  00C5               	movwf	clcd_print@str
  3556     09C2  3085               	movlw	high (STR_26| (0+32768))
  3557     09C3  00C6               	movwf	clcd_print@str+1
  3558     09C4  3080               	movlw	128
  3559     09C5  00C7               	movwf	clcd_print@addr
  3560     09C6  160A  118A  24CC  120A  158A  	fcall	_clcd_print
  3561                           
  3562                           ;helper.c: 273:             clcd_print("  ARE AVAILABLE ", (0xC0 + 0));
  3563     09CB  3055               	movlw	low (STR_27| (0+32768))
  3564     09CC  1283               	bcf	3,5	;RP0=0, select bank0
  3565     09CD  1303               	bcf	3,6	;RP1=0, select bank0
  3566     09CE  00C5               	movwf	clcd_print@str
  3567     09CF  3085               	movlw	high (STR_27| (0+32768))
  3568     09D0  00C6               	movwf	clcd_print@str+1
  3569     09D1  30C0               	movlw	192
  3570     09D2  00C7               	movwf	clcd_print@addr
  3571     09D3  160A  118A  24CC  120A  158A  	fcall	_clcd_print
  3572     09D8                     l4294:
  3573                           
  3574                           ;helper.c: 274:             _delay((unsigned long)((1500)*(20000000/4000.0)));
  3575     09D8  3027               	movlw	39
  3576     09D9  1283               	bcf	3,5	;RP0=0, select bank0
  3577     09DA  1303               	bcf	3,6	;RP1=0, select bank0
  3578     09DB  00D1               	movwf	??_view_log+2
  3579     09DC  300D               	movlw	13
  3580     09DD  00D0               	movwf	??_view_log+1
  3581     09DE  3025               	movlw	37
  3582     09DF  00CF               	movwf	??_view_log
  3583     09E0                     u4917:
  3584     09E0  0BCF               	decfsz	??_view_log,f
  3585     09E1  29E0               	goto	u4917
  3586     09E2  0BD0               	decfsz	??_view_log+1,f
  3587     09E3  29E0               	goto	u4917
  3588     09E4  0BD1               	decfsz	??_view_log+2,f
  3589     09E5  29E0               	goto	u4917
  3590     09E6  29E7               	nop2
  3591     09E7                     l4296:
  3592                           
  3593                           ;helper.c: 275:             return 0xA1;
  3594     09E7  30A1               	movlw	161
  3595     09E8  2A31               	goto	l404
  3596     09E9                     l4302:
  3597                           
  3598                           ;helper.c: 277:             clcd_print("#  TIME    E  Sp", (0x80 + 0));
  3599     09E9  30BB               	movlw	low (STR_28| (0+32768))
  3600     09EA  00C5               	movwf	clcd_print@str
  3601     09EB  3085               	movlw	high (STR_28| (0+32768))
  3602     09EC  00C6               	movwf	clcd_print@str+1
  3603     09ED  3080               	movlw	128
  3604     09EE  00C7               	movwf	clcd_print@addr
  3605     09EF  160A  118A  24CC  120A  158A  	fcall	_clcd_print
  3606     09F4                     l4304:
  3607                           
  3608                           ;helper.c: 278:             log_pos = 0;
  3609     09F4  1283               	bcf	3,5	;RP0=0, select bank0
  3610     09F5  1303               	bcf	3,6	;RP1=0, select bank0
  3611     09F6  01AF               	clrf	view_log@log_pos
  3612     09F7                     l4306:
  3613                           
  3614                           ;helper.c: 284:     if (key == 0x2F) {
  3615     09F7  302F               	movlw	47
  3616     09F8  064E               	xorwf	view_log@key,w
  3617     09F9  1D03               	btfss	3,2
  3618     09FA  29FC               	goto	u4251
  3619     09FB  29FD               	goto	u4250
  3620     09FC                     u4251:
  3621     09FC  2A19               	goto	l4316
  3622     09FD                     u4250:
  3623     09FD                     l4308:
  3624                           
  3625                           ;helper.c: 285:         log_pos++;
  3626     09FD  3001               	movlw	1
  3627     09FE  07AF               	addwf	view_log@log_pos,f
  3628     09FF                     l4310:
  3629                           
  3630                           ;helper.c: 286:         if (log_pos > log_count)
  3631     09FF  0864               	movf	_log_count,w
  3632     0A00  00CF               	movwf	??_view_log
  3633     0A01  01D0               	clrf	??_view_log+1
  3634     0A02  1BCF               	btfsc	??_view_log,7
  3635     0A03  03D0               	decf	??_view_log+1,f
  3636     0A04  0850               	movf	??_view_log+1,w
  3637     0A05  3A80               	xorlw	128
  3638     0A06  00D1               	movwf	??_view_log+2
  3639     0A07  3080               	movlw	128
  3640     0A08  0251               	subwf	??_view_log+2,w
  3641     0A09  1D03               	skipz
  3642     0A0A  2A0D               	goto	u4265
  3643     0A0B  082F               	movf	view_log@log_pos,w
  3644     0A0C  024F               	subwf	??_view_log,w
  3645     0A0D                     u4265:
  3646     0A0D  1803               	skipnc
  3647     0A0E  2A10               	goto	u4261
  3648     0A0F  2A11               	goto	u4260
  3649     0A10                     u4261:
  3650     0A10  2A14               	goto	l4314
  3651     0A11                     u4260:
  3652     0A11                     l4312:
  3653                           
  3654                           ;helper.c: 287:             log_pos = 0;
  3655     0A11  1283               	bcf	3,5	;RP0=0, select bank0
  3656     0A12  1303               	bcf	3,6	;RP1=0, select bank0
  3657     0A13  01AF               	clrf	view_log@log_pos
  3658     0A14                     l4314:
  3659                           
  3660                           ;helper.c: 288:         return_time = 5;
  3661     0A14  3005               	movlw	5
  3662     0A15  1283               	bcf	3,5	;RP0=0, select bank0
  3663     0A16  1303               	bcf	3,6	;RP1=0, select bank0
  3664     0A17  00B4               	movwf	_return_time
  3665                           
  3666                           ;helper.c: 289:     } else if (key == 0x37) {
  3667     0A18  2A2A               	goto	l4326
  3668     0A19                     l4316:
  3669     0A19  3037               	movlw	55
  3670     0A1A  064E               	xorwf	view_log@key,w
  3671     0A1B  1D03               	btfss	3,2
  3672     0A1C  2A1E               	goto	u4271
  3673     0A1D  2A1F               	goto	u4270
  3674     0A1E                     u4271:
  3675     0A1E  2A2A               	goto	l4326
  3676     0A1F                     u4270:
  3677     0A1F                     l4318:
  3678                           
  3679                           ;helper.c: 290:         if (log_pos == 0)
  3680     0A1F  082F               	movf	view_log@log_pos,w
  3681     0A20  1D03               	btfss	3,2
  3682     0A21  2A23               	goto	u4281
  3683     0A22  2A24               	goto	u4280
  3684     0A23                     u4281:
  3685     0A23  2A27               	goto	l4322
  3686     0A24                     u4280:
  3687     0A24                     l4320:
  3688                           
  3689                           ;helper.c: 291:             log_pos = log_count;
  3690     0A24  0864               	movf	_log_count,w
  3691     0A25  00AF               	movwf	view_log@log_pos
  3692     0A26  2A14               	goto	l4314
  3693     0A27                     l4322:
  3694                           
  3695                           ;helper.c: 293:             log_pos--;
  3696     0A27  3001               	movlw	1
  3697     0A28  02AF               	subwf	view_log@log_pos,f
  3698     0A29  2A14               	goto	l4314
  3699     0A2A                     l4326:
  3700                           
  3701                           ;helper.c: 297:     display_log(log_pos);
  3702     0A2A  082F               	movf	view_log@log_pos,w
  3703     0A2B  120A  118A  26D7  120A  158A  	fcall	_display_log
  3704     0A30                     l4328:
  3705                           
  3706                           ;helper.c: 302:     return 0xA0;
  3707     0A30  30A0               	movlw	160
  3708     0A31                     l404:
  3709     0A31  0008               	return
  3710     0A32                     __end_of_view_log:
  3711                           
  3712                           	psect	text2
  3713     06D7                     __ptext2:	
  3714 ;; *************** function _display_log *****************
  3715 ;; Defined at:
  3716 ;;		line 237 in file "helper.c"
  3717 ;; Parameters:    Size  Location     Type
  3718 ;;  log_pos         1    wreg     unsigned char 
  3719 ;; Auto vars:     Size  Location     Type
  3720 ;;  log_pos         1    8[BANK0 ] unsigned char 
  3721 ;; Return value:  Size  Location     Type
  3722 ;;                  1    wreg      void 
  3723 ;; Registers used:
  3724 ;;		wreg, fsr0l, fsr0h, status,2, status,0, pclath, cstack
  3725 ;; Tracked objects:
  3726 ;;		On entry : 0/0
  3727 ;;		On exit  : 0/0
  3728 ;;		Unchanged: 0/0
  3729 ;; Data sizes:     COMMON   BANK0   BANK1   BANK3   BANK2
  3730 ;;      Params:         0       0       0       0       0
  3731 ;;      Locals:         0       1       0       0       0
  3732 ;;      Temps:          0       2       0       0       0
  3733 ;;      Totals:         0       3       0       0       0
  3734 ;;Total ram usage:        3 bytes
  3735 ;; Hardware stack levels used: 1
  3736 ;; Hardware stack levels required when called: 2
  3737 ;; This function calls:
  3738 ;;		___awmod
  3739 ;;		_clcd_putch
  3740 ;;		_get_log
  3741 ;; This function is called by:
  3742 ;;		_view_log
  3743 ;; This function uses a non-reentrant model
  3744 ;;
  3745                           
  3746     06D7                     _display_log:	
  3747                           ;psect for function _display_log
  3748                           
  3749                           
  3750                           ;incstack = 0
  3751                           ; Regs used in _display_log: [wreg-fsr0h+status,2+status,0+pclath+cstack]
  3752                           ;display_log@log_pos stored from wreg
  3753     06D7  1283               	bcf	3,5	;RP0=0, select bank0
  3754     06D8  1303               	bcf	3,6	;RP1=0, select bank0
  3755     06D9  00CD               	movwf	display_log@log_pos
  3756     06DA                     l3908:
  3757                           
  3758                           ;helper.c: 239:     get_log(log_pos);
  3759     06DA  084D               	movf	display_log@log_pos,w
  3760     06DB  160A  118A  2468  120A  118A  	fcall	_get_log
  3761     06E0                     l3910:
  3762                           
  3763                           ;helper.c: 241:     clcd_putch((log_pos % 10) + '0', (0xC0 + 0));
  3764     06E0  30C0               	movlw	192
  3765     06E1  1283               	bcf	3,5	;RP0=0, select bank0
  3766     06E2  1303               	bcf	3,6	;RP1=0, select bank0
  3767     06E3  00C9               	movwf	clcd_putch@addr
  3768     06E4  300A               	movlw	10
  3769     06E5  00F3               	movwf	___awmod@divisor
  3770     06E6  3000               	movlw	0
  3771     06E7  00F4               	movwf	___awmod@divisor+1
  3772     06E8  084D               	movf	display_log@log_pos,w
  3773     06E9  00CB               	movwf	??_display_log
  3774     06EA  01CC               	clrf	??_display_log+1
  3775     06EB  084B               	movf	??_display_log,w
  3776     06EC  00F5               	movwf	___awmod@dividend
  3777     06ED  084C               	movf	??_display_log+1,w
  3778     06EE  00F6               	movwf	___awmod@dividend+1
  3779     06EF  120A  158A  2006  120A  118A  	fcall	___awmod
  3780     06F4  0873               	movf	?___awmod,w
  3781     06F5  3E30               	addlw	48
  3782     06F6  160A  118A  22CD  120A  118A  	fcall	_clcd_putch
  3783     06FB                     l3912:
  3784                           
  3785                           ;helper.c: 243:     clcd_putch(saved_log[0], (0xC0 + 2));
  3786     06FB  30C2               	movlw	194
  3787     06FC  1283               	bcf	3,5	;RP0=0, select bank0
  3788     06FD  1303               	bcf	3,6	;RP1=0, select bank0
  3789     06FE  00C9               	movwf	clcd_putch@addr
  3790     06FF  1683               	bsf	3,5	;RP0=1, select bank1
  3791     0700  1303               	bcf	3,6	;RP1=0, select bank1
  3792     0701  0820               	movf	_saved_log^(0+128),w
  3793     0702  160A  118A  22CD  120A  118A  	fcall	_clcd_putch
  3794     0707                     l3914:
  3795                           
  3796                           ;helper.c: 244:     clcd_putch(saved_log[1], (0xC0 + 3));
  3797     0707  30C3               	movlw	195
  3798     0708  1283               	bcf	3,5	;RP0=0, select bank0
  3799     0709  1303               	bcf	3,6	;RP1=0, select bank0
  3800     070A  00C9               	movwf	clcd_putch@addr
  3801     070B  1683               	bsf	3,5	;RP0=1, select bank1
  3802     070C  1303               	bcf	3,6	;RP1=0, select bank1
  3803     070D  0821               	movf	(_saved_log^(0+128)+1),w
  3804     070E  160A  118A  22CD  120A  118A  	fcall	_clcd_putch
  3805     0713                     l3916:
  3806                           
  3807                           ;helper.c: 246:     clcd_putch(':', (0xC0 + 4));
  3808     0713  30C4               	movlw	196
  3809     0714  1283               	bcf	3,5	;RP0=0, select bank0
  3810     0715  1303               	bcf	3,6	;RP1=0, select bank0
  3811     0716  00C9               	movwf	clcd_putch@addr
  3812     0717  303A               	movlw	58
  3813     0718  160A  118A  22CD  120A  118A  	fcall	_clcd_putch
  3814     071D                     l3918:
  3815                           
  3816                           ;helper.c: 248:     clcd_putch(saved_log[2], (0xC0 + 5));
  3817     071D  30C5               	movlw	197
  3818     071E  1283               	bcf	3,5	;RP0=0, select bank0
  3819     071F  1303               	bcf	3,6	;RP1=0, select bank0
  3820     0720  00C9               	movwf	clcd_putch@addr
  3821     0721  1683               	bsf	3,5	;RP0=1, select bank1
  3822     0722  1303               	bcf	3,6	;RP1=0, select bank1
  3823     0723  0822               	movf	(_saved_log^(0+128)+2),w
  3824     0724  160A  118A  22CD  120A  118A  	fcall	_clcd_putch
  3825     0729                     l3920:
  3826                           
  3827                           ;helper.c: 249:     clcd_putch(saved_log[3], (0xC0 + 6));
  3828     0729  30C6               	movlw	198
  3829     072A  1283               	bcf	3,5	;RP0=0, select bank0
  3830     072B  1303               	bcf	3,6	;RP1=0, select bank0
  3831     072C  00C9               	movwf	clcd_putch@addr
  3832     072D  1683               	bsf	3,5	;RP0=1, select bank1
  3833     072E  1303               	bcf	3,6	;RP1=0, select bank1
  3834     072F  0823               	movf	(_saved_log^(0+128)+3),w
  3835     0730  160A  118A  22CD  120A  118A  	fcall	_clcd_putch
  3836     0735                     l3922:
  3837                           
  3838                           ;helper.c: 251:     clcd_putch(':', (0xC0 + 7));
  3839     0735  30C7               	movlw	199
  3840     0736  1283               	bcf	3,5	;RP0=0, select bank0
  3841     0737  1303               	bcf	3,6	;RP1=0, select bank0
  3842     0738  00C9               	movwf	clcd_putch@addr
  3843     0739  303A               	movlw	58
  3844     073A  160A  118A  22CD  120A  118A  	fcall	_clcd_putch
  3845     073F                     l3924:
  3846                           
  3847                           ;helper.c: 253:     clcd_putch(saved_log[4], (0xC0 + 8));
  3848     073F  30C8               	movlw	200
  3849     0740  1283               	bcf	3,5	;RP0=0, select bank0
  3850     0741  1303               	bcf	3,6	;RP1=0, select bank0
  3851     0742  00C9               	movwf	clcd_putch@addr
  3852     0743  1683               	bsf	3,5	;RP0=1, select bank1
  3853     0744  1303               	bcf	3,6	;RP1=0, select bank1
  3854     0745  0824               	movf	(_saved_log^(0+128)+4),w
  3855     0746  160A  118A  22CD  120A  118A  	fcall	_clcd_putch
  3856     074B                     l3926:
  3857                           
  3858                           ;helper.c: 254:     clcd_putch(saved_log[5], (0xC0 + 9));
  3859     074B  30C9               	movlw	201
  3860     074C  1283               	bcf	3,5	;RP0=0, select bank0
  3861     074D  1303               	bcf	3,6	;RP1=0, select bank0
  3862     074E  00C9               	movwf	clcd_putch@addr
  3863     074F  1683               	bsf	3,5	;RP0=1, select bank1
  3864     0750  1303               	bcf	3,6	;RP1=0, select bank1
  3865     0751  0825               	movf	(_saved_log^(0+128)+5),w
  3866     0752  160A  118A  22CD  120A  118A  	fcall	_clcd_putch
  3867     0757                     l3928:
  3868                           
  3869                           ;helper.c: 256:     clcd_putch(saved_log[6], (0xC0 + 11));
  3870     0757  30CB               	movlw	203
  3871     0758  1283               	bcf	3,5	;RP0=0, select bank0
  3872     0759  1303               	bcf	3,6	;RP1=0, select bank0
  3873     075A  00C9               	movwf	clcd_putch@addr
  3874     075B  1683               	bsf	3,5	;RP0=1, select bank1
  3875     075C  1303               	bcf	3,6	;RP1=0, select bank1
  3876     075D  0826               	movf	(_saved_log^(0+128)+6),w
  3877     075E  160A  118A  22CD  120A  118A  	fcall	_clcd_putch
  3878     0763                     l3930:
  3879                           
  3880                           ;helper.c: 257:     clcd_putch(saved_log[7], (0xC0 + 12));
  3881     0763  30CC               	movlw	204
  3882     0764  1283               	bcf	3,5	;RP0=0, select bank0
  3883     0765  1303               	bcf	3,6	;RP1=0, select bank0
  3884     0766  00C9               	movwf	clcd_putch@addr
  3885     0767  1683               	bsf	3,5	;RP0=1, select bank1
  3886     0768  1303               	bcf	3,6	;RP1=0, select bank1
  3887     0769  0827               	movf	(_saved_log^(0+128)+7),w
  3888     076A  160A  118A  22CD  120A  118A  	fcall	_clcd_putch
  3889     076F                     l3932:
  3890                           
  3891                           ;helper.c: 259:     clcd_putch(saved_log[8], (0xC0 + 14));
  3892     076F  30CE               	movlw	206
  3893     0770  1283               	bcf	3,5	;RP0=0, select bank0
  3894     0771  1303               	bcf	3,6	;RP1=0, select bank0
  3895     0772  00C9               	movwf	clcd_putch@addr
  3896     0773  1683               	bsf	3,5	;RP0=1, select bank1
  3897     0774  1303               	bcf	3,6	;RP1=0, select bank1
  3898     0775  0828               	movf	(_saved_log^(0+128)+8),w
  3899     0776  160A  118A  22CD  120A  118A  	fcall	_clcd_putch
  3900     077B                     l3934:
  3901                           
  3902                           ;helper.c: 260:     clcd_putch(saved_log[9], (0xC0 + 15));
  3903     077B  30CF               	movlw	207
  3904     077C  1283               	bcf	3,5	;RP0=0, select bank0
  3905     077D  1303               	bcf	3,6	;RP1=0, select bank0
  3906     077E  00C9               	movwf	clcd_putch@addr
  3907     077F  1683               	bsf	3,5	;RP0=1, select bank1
  3908     0780  1303               	bcf	3,6	;RP1=0, select bank1
  3909     0781  0829               	movf	(_saved_log^(0+128)+9),w
  3910     0782  160A  118A  22CD  120A  118A  	fcall	_clcd_putch
  3911     0787                     l397:
  3912     0787  0008               	return
  3913     0788                     __end_of_display_log:
  3914                           
  3915                           	psect	text3
  3916     0E55                     __ptext3:	
  3917 ;; *************** function _set_time *****************
  3918 ;; Defined at:
  3919 ;;		line 366 in file "helper.c"
  3920 ;; Parameters:    Size  Location     Type
  3921 ;;  reset_flag      1    wreg     unsigned char 
  3922 ;;  key             1    6[BANK0 ] unsigned char 
  3923 ;; Auto vars:     Size  Location     Type
  3924 ;;  reset_flag      1    9[BANK0 ] unsigned char 
  3925 ;; Return value:  Size  Location     Type
  3926 ;;                  1    wreg      void 
  3927 ;; Registers used:
  3928 ;;		wreg, fsr0l, fsr0h, status,2, status,0, pclath, btemp1, cstack
  3929 ;; Tracked objects:
  3930 ;;		On entry : 0/0
  3931 ;;		On exit  : 0/0
  3932 ;;		Unchanged: 0/0
  3933 ;; Data sizes:     COMMON   BANK0   BANK1   BANK3   BANK2
  3934 ;;      Params:         0       1       0       0       0
  3935 ;;      Locals:         0       1       0       0       0
  3936 ;;      Temps:          0       2       0       0       0
  3937 ;;      Totals:         0       4       0       0       0
  3938 ;;Total ram usage:        4 bytes
  3939 ;; Hardware stack levels used: 1
  3940 ;; Hardware stack levels required when called: 3
  3941 ;; This function calls:
  3942 ;;		___awdiv
  3943 ;;		___awmod
  3944 ;;		___bmul
  3945 ;;		_clcd_print
  3946 ;;		_clcd_putch
  3947 ;;		_clear_screen
  3948 ;;		_get_time
  3949 ;;		_strcpy
  3950 ;; This function is called by:
  3951 ;;		_main
  3952 ;; This function uses a non-reentrant model
  3953 ;;
  3954                           
  3955     0E55                     _set_time:	
  3956                           ;psect for function _set_time
  3957                           
  3958                           
  3959                           ;incstack = 0
  3960                           ; Regs used in _set_time: [wreg-fsr0h+status,2+status,0+pclath+btemp1+cstack]
  3961                           ;set_time@reset_flag stored from wreg
  3962     0E55  1283               	bcf	3,5	;RP0=0, select bank0
  3963     0E56  1303               	bcf	3,6	;RP1=0, select bank0
  3964     0E57  00CE               	movwf	set_time@reset_flag
  3965     0E58                     l4486:
  3966                           
  3967                           ;helper.c: 367:     static unsigned char newTime[7];;helper.c: 368:     static signed ch
      +                          ar i, j;;helper.c: 370:     static int blink;;helper.c: 371:     static int blink_delay;
      +                          ;helper.c: 374:     if (reset_flag == 0x18) {
  3968     0E58  3018               	movlw	24
  3969     0E59  064E               	xorwf	set_time@reset_flag,w
  3970     0E5A  1D03               	btfss	3,2
  3971     0E5B  2E5D               	goto	u4411
  3972     0E5C  2E5E               	goto	u4410
  3973     0E5D                     u4411:
  3974     0E5D  2EB8               	goto	l4506
  3975     0E5E                     u4410:
  3976     0E5E                     l4488:
  3977                           
  3978                           ;helper.c: 375:         clear_screen();
  3979     0E5E  160A  118A  2281  120A  158A  	fcall	_clear_screen
  3980     0E63                     l4490:
  3981                           
  3982                           ;helper.c: 376:         return_time = 5;
  3983     0E63  3005               	movlw	5
  3984     0E64  1283               	bcf	3,5	;RP0=0, select bank0
  3985     0E65  1303               	bcf	3,6	;RP1=0, select bank0
  3986     0E66  00B4               	movwf	_return_time
  3987     0E67                     l4492:
  3988                           
  3989                           ;helper.c: 378:         clcd_print("Time (HH:MM:SS)", (0x80 + 0));
  3990     0E67  30EE               	movlw	low (STR_35| (0+32768))
  3991     0E68  00C5               	movwf	clcd_print@str
  3992     0E69  3085               	movlw	high (STR_35| (0+32768))
  3993     0E6A  00C6               	movwf	clcd_print@str+1
  3994     0E6B  3080               	movlw	128
  3995     0E6C  00C7               	movwf	clcd_print@addr
  3996     0E6D  160A  118A  24CC  120A  158A  	fcall	_clcd_print
  3997     0E72                     l4494:
  3998                           
  3999                           ;helper.c: 380:         get_time();
  4000     0E72  160A  118A  273A  120A  158A  	fcall	_get_time
  4001                           
  4002                           ;helper.c: 381:         strcpy(newTime, time);
  4003     0E77  30B6               	movlw	(low (set_time@newTime| 0))& (0+255)
  4004     0E78  00F3               	movwf	strcpy@dest
  4005     0E79  30BD               	movlw	(low (_time| 0))& (0+255)
  4006     0E7A  00F4               	movwf	strcpy@src
  4007     0E7B  3000               	movlw	0
  4008     0E7C  00F5               	movwf	strcpy@src+1
  4009     0E7D  160A  118A  2378  120A  158A  	fcall	_strcpy
  4010     0E82                     l4496:
  4011                           
  4012                           ;helper.c: 383:         newSec = (newTime[4] - '0') * 10 + (newTime[5] - '0');
  4013     0E82  300A               	movlw	10
  4014     0E83  00F3               	movwf	___bmul@multiplicand
  4015     0E84  1683               	bsf	3,5	;RP0=1, select bank1
  4016     0E85  1303               	bcf	3,6	;RP1=0, select bank1
  4017     0E86  083A               	movf	(set_time@newTime^(0+128)+4),w
  4018     0E87  160A  118A  2293  120A  158A  	fcall	___bmul
  4019     0E8C  1683               	bsf	3,5	;RP0=1, select bank1
  4020     0E8D  1303               	bcf	3,6	;RP1=0, select bank1
  4021     0E8E  073B               	addwf	(set_time@newTime^(0+128)+5),w
  4022     0E8F  3EF0               	addlw	240
  4023     0E90  1283               	bcf	3,5	;RP0=0, select bank0
  4024     0E91  1303               	bcf	3,6	;RP1=0, select bank0
  4025     0E92  00B8               	movwf	_newSec
  4026     0E93                     l4498:
  4027                           
  4028                           ;helper.c: 384:         newMin = (newTime[2] - '0') * 10 + (newTime[3] - '0');
  4029     0E93  300A               	movlw	10
  4030     0E94  00F3               	movwf	___bmul@multiplicand
  4031     0E95  1683               	bsf	3,5	;RP0=1, select bank1
  4032     0E96  1303               	bcf	3,6	;RP1=0, select bank1
  4033     0E97  0838               	movf	(set_time@newTime^(0+128)+2),w
  4034     0E98  160A  118A  2293  120A  158A  	fcall	___bmul
  4035     0E9D  1683               	bsf	3,5	;RP0=1, select bank1
  4036     0E9E  1303               	bcf	3,6	;RP1=0, select bank1
  4037     0E9F  0739               	addwf	(set_time@newTime^(0+128)+3),w
  4038     0EA0  3EF0               	addlw	240
  4039     0EA1  1283               	bcf	3,5	;RP0=0, select bank0
  4040     0EA2  1303               	bcf	3,6	;RP1=0, select bank0
  4041     0EA3  00B7               	movwf	_newMin
  4042     0EA4                     l4500:
  4043                           
  4044                           ;helper.c: 385:         newHr = (newTime[0] - '0') * 10 + (newTime[1] - '0');
  4045     0EA4  300A               	movlw	10
  4046     0EA5  00F3               	movwf	___bmul@multiplicand
  4047     0EA6  1683               	bsf	3,5	;RP0=1, select bank1
  4048     0EA7  1303               	bcf	3,6	;RP1=0, select bank1
  4049     0EA8  0836               	movf	set_time@newTime^(0+128),w
  4050     0EA9  160A  118A  2293  120A  158A  	fcall	___bmul
  4051     0EAE  1683               	bsf	3,5	;RP0=1, select bank1
  4052     0EAF  1303               	bcf	3,6	;RP1=0, select bank1
  4053     0EB0  0737               	addwf	(set_time@newTime^(0+128)+1),w
  4054     0EB1  3EF0               	addlw	240
  4055     0EB2  1283               	bcf	3,5	;RP0=0, select bank0
  4056     0EB3  1303               	bcf	3,6	;RP1=0, select bank0
  4057     0EB4  00B6               	movwf	_newHr
  4058     0EB5                     l4502:
  4059                           
  4060                           ;helper.c: 387:         i = 2;
  4061     0EB5  3002               	movlw	2
  4062     0EB6  00AE               	movwf	set_time@i
  4063     0EB7                     l4504:
  4064                           
  4065                           ;helper.c: 388:         j = 0;
  4066     0EB7  01AD               	clrf	set_time@j
  4067     0EB8                     l4506:
  4068                           
  4069                           ;helper.c: 391:     if (key == 0x37) {
  4070     0EB8  3037               	movlw	55
  4071     0EB9  064B               	xorwf	set_time@key,w
  4072     0EBA  1D03               	btfss	3,2
  4073     0EBB  2EBD               	goto	u4421
  4074     0EBC  2EBE               	goto	u4420
  4075     0EBD                     u4421:
  4076     0EBD  2EE9               	goto	l4526
  4077     0EBE                     u4420:
  4078     0EBE                     l4508:
  4079                           
  4080                           ;helper.c: 392:         if (i == 2) {
  4081     0EBE  3002               	movlw	2
  4082     0EBF  062E               	xorwf	set_time@i,w
  4083     0EC0  1D03               	btfss	3,2
  4084     0EC1  2EC3               	goto	u4431
  4085     0EC2  2EC4               	goto	u4430
  4086     0EC3                     u4431:
  4087     0EC3  2ECE               	goto	l4514
  4088     0EC4                     u4430:
  4089     0EC4                     l4510:
  4090                           
  4091                           ;helper.c: 393:             if (++newHr > 23)
  4092     0EC4  3001               	movlw	1
  4093     0EC5  07B6               	addwf	_newHr,f
  4094     0EC6  3018               	movlw	24
  4095     0EC7  0236               	subwf	_newHr,w
  4096     0EC8  1C03               	skipc
  4097     0EC9  2ECB               	goto	u4441
  4098     0ECA  2ECC               	goto	u4440
  4099     0ECB                     u4441:
  4100     0ECB  2EE6               	goto	l4524
  4101     0ECC                     u4440:
  4102     0ECC                     l4512:
  4103                           
  4104                           ;helper.c: 394:                 newHr = 0;
  4105     0ECC  01B6               	clrf	_newHr
  4106     0ECD  2EE6               	goto	l4524
  4107     0ECE                     l4514:
  4108     0ECE  032E               	decf	set_time@i,w
  4109     0ECF  1D03               	btfss	3,2
  4110     0ED0  2ED2               	goto	u4451
  4111     0ED1  2ED3               	goto	u4450
  4112     0ED2                     u4451:
  4113     0ED2  2EDD               	goto	l4520
  4114     0ED3                     u4450:
  4115     0ED3                     l4516:
  4116                           
  4117                           ;helper.c: 396:             if (++newMin > 59)
  4118     0ED3  3001               	movlw	1
  4119     0ED4  07B7               	addwf	_newMin,f
  4120     0ED5  303C               	movlw	60
  4121     0ED6  0237               	subwf	_newMin,w
  4122     0ED7  1C03               	skipc
  4123     0ED8  2EDA               	goto	u4461
  4124     0ED9  2EDB               	goto	u4460
  4125     0EDA                     u4461:
  4126     0EDA  2EE6               	goto	l4524
  4127     0EDB                     u4460:
  4128     0EDB                     l4518:
  4129                           
  4130                           ;helper.c: 397:                 newMin = 0;
  4131     0EDB  01B7               	clrf	_newMin
  4132     0EDC  2EE6               	goto	l4524
  4133     0EDD                     l4520:
  4134                           
  4135                           ;helper.c: 399:             if (++newSec > 59)
  4136     0EDD  3001               	movlw	1
  4137     0EDE  07B8               	addwf	_newSec,f
  4138     0EDF  303C               	movlw	60
  4139     0EE0  0238               	subwf	_newSec,w
  4140     0EE1  1C03               	skipc
  4141     0EE2  2EE4               	goto	u4471
  4142     0EE3  2EE5               	goto	u4470
  4143     0EE4                     u4471:
  4144     0EE4  2EE6               	goto	l4524
  4145     0EE5                     u4470:
  4146     0EE5                     l4522:
  4147                           
  4148                           ;helper.c: 400:                 newSec = 0;
  4149     0EE5  01B8               	clrf	_newSec
  4150     0EE6                     l4524:
  4151                           
  4152                           ;helper.c: 402:         return_time = 5;
  4153     0EE6  3005               	movlw	5
  4154     0EE7  00B4               	movwf	_return_time
  4155                           
  4156                           ;helper.c: 403:     } else if (key == 0x2F) {
  4157     0EE8  2F09               	goto	l4540
  4158     0EE9                     l4526:
  4159     0EE9  302F               	movlw	47
  4160     0EEA  064B               	xorwf	set_time@key,w
  4161     0EEB  1D03               	btfss	3,2
  4162     0EEC  2EEE               	goto	u4481
  4163     0EED  2EEF               	goto	u4480
  4164     0EEE                     u4481:
  4165     0EEE  2F09               	goto	l4540
  4166     0EEF                     u4480:
  4167     0EEF                     l4528:
  4168                           
  4169                           ;helper.c: 404:         if (--i < 0)
  4170     0EEF  30FF               	movlw	255
  4171     0EF0  07AE               	addwf	set_time@i,f
  4172     0EF1  1FAE               	btfss	set_time@i,7
  4173     0EF2  2EF4               	goto	u4491
  4174     0EF3  2EF5               	goto	u4490
  4175     0EF4                     u4491:
  4176     0EF4  2EF7               	goto	l4532
  4177     0EF5                     u4490:
  4178     0EF5                     l4530:
  4179                           
  4180                           ;helper.c: 405:             i = 2;
  4181     0EF5  3002               	movlw	2
  4182     0EF6  00AE               	movwf	set_time@i
  4183     0EF7                     l4532:
  4184                           
  4185                           ;helper.c: 407:         if (i == 2)
  4186     0EF7  3002               	movlw	2
  4187     0EF8  062E               	xorwf	set_time@i,w
  4188     0EF9  1D03               	btfss	3,2
  4189     0EFA  2EFC               	goto	u4501
  4190     0EFB  2EFD               	goto	u4500
  4191     0EFC                     u4501:
  4192     0EFC  2EFF               	goto	l4536
  4193     0EFD                     u4500:
  4194     0EFD                     l4534:
  4195                           
  4196                           ;helper.c: 408:             j = 0;
  4197     0EFD  01AD               	clrf	set_time@j
  4198     0EFE  2F09               	goto	l4540
  4199     0EFF                     l4536:
  4200     0EFF  032E               	decf	set_time@i,w
  4201     0F00  1D03               	btfss	3,2
  4202     0F01  2F03               	goto	u4511
  4203     0F02  2F04               	goto	u4510
  4204     0F03                     u4511:
  4205     0F03  2F07               	goto	l453
  4206     0F04                     u4510:
  4207     0F04                     l4538:
  4208                           
  4209                           ;helper.c: 410:             j = 3;
  4210     0F04  3003               	movlw	3
  4211     0F05  00AD               	movwf	set_time@j
  4212     0F06  2F09               	goto	l4540
  4213     0F07                     l453:	
  4214                           ;helper.c: 411:         else
  4215                           
  4216                           
  4217                           ;helper.c: 412:             j = 6;
  4218     0F07  3006               	movlw	6
  4219     0F08  00AD               	movwf	set_time@j
  4220     0F09                     l4540:
  4221                           
  4222                           ;helper.c: 419:     if (++blink_delay > 2)
  4223     0F09  3001               	movlw	1
  4224     0F0A  07A7               	addwf	set_time@blink_delay,f
  4225     0F0B  1803               	skipnc
  4226     0F0C  0AA8               	incf	set_time@blink_delay+1,f
  4227     0F0D  3000               	movlw	0
  4228     0F0E  07A8               	addwf	set_time@blink_delay+1,f
  4229     0F0F  0828               	movf	set_time@blink_delay+1,w
  4230     0F10  3A80               	xorlw	128
  4231     0F11  00FF               	movwf	btemp1
  4232     0F12  3080               	movlw	128
  4233     0F13  027F               	subwf	btemp1,w
  4234     0F14  1D03               	skipz
  4235     0F15  2F18               	goto	u4525
  4236     0F16  3003               	movlw	3
  4237     0F17  0227               	subwf	set_time@blink_delay,w
  4238     0F18                     u4525:
  4239     0F18  1C03               	skipc
  4240     0F19  2F1B               	goto	u4521
  4241     0F1A  2F1C               	goto	u4520
  4242     0F1B                     u4521:
  4243     0F1B  2F2E               	goto	l4546
  4244     0F1C                     u4520:
  4245     0F1C                     l4542:
  4246                           
  4247                           ;helper.c: 420:     {;helper.c: 421:         blink_delay = 0;
  4248     0F1C  1283               	bcf	3,5	;RP0=0, select bank0
  4249     0F1D  1303               	bcf	3,6	;RP1=0, select bank0
  4250     0F1E  01A7               	clrf	set_time@blink_delay
  4251     0F1F  01A8               	clrf	set_time@blink_delay+1
  4252     0F20                     l4544:
  4253                           
  4254                           ;helper.c: 422:         blink = !blink;
  4255     0F20  0829               	movf	set_time@blink,w
  4256     0F21  042A               	iorwf	set_time@blink+1,w
  4257     0F22  1903               	btfsc	3,2
  4258     0F23  2F25               	goto	u4531
  4259     0F24  2F27               	goto	u4530
  4260     0F25                     u4531:
  4261     0F25  3001               	movlw	1
  4262     0F26  2F28               	goto	u4540
  4263     0F27                     u4530:
  4264     0F27  3000               	movlw	0
  4265     0F28                     u4540:
  4266     0F28  00CC               	movwf	??_set_time
  4267     0F29  01CD               	clrf	??_set_time+1
  4268     0F2A  084C               	movf	??_set_time,w
  4269     0F2B  00A9               	movwf	set_time@blink
  4270     0F2C  084D               	movf	??_set_time+1,w
  4271     0F2D  00AA               	movwf	set_time@blink+1
  4272     0F2E                     l4546:
  4273                           
  4274                           ;helper.c: 425:     if (!blink) {
  4275     0F2E  1283               	bcf	3,5	;RP0=0, select bank0
  4276     0F2F  1303               	bcf	3,6	;RP1=0, select bank0
  4277     0F30  0829               	movf	set_time@blink,w
  4278     0F31  042A               	iorwf	set_time@blink+1,w
  4279     0F32  1D03               	btfss	3,2
  4280     0F33  2F35               	goto	u4551
  4281     0F34  2F36               	goto	u4550
  4282     0F35                     u4551:
  4283     0F35  2FEB               	goto	l4550
  4284     0F36                     u4550:
  4285     0F36                     l4548:
  4286                           
  4287                           ;helper.c: 427:         clcd_putch(newHr / 10 + '0', (0xC0 + 0));
  4288     0F36  30C0               	movlw	192
  4289     0F37  00C9               	movwf	clcd_putch@addr
  4290     0F38  300A               	movlw	10
  4291     0F39  00F3               	movwf	___awdiv@divisor
  4292     0F3A  3000               	movlw	0
  4293     0F3B  00F4               	movwf	___awdiv@divisor+1
  4294     0F3C  0836               	movf	_newHr,w
  4295     0F3D  00CC               	movwf	??_set_time
  4296     0F3E  01CD               	clrf	??_set_time+1
  4297     0F3F  084C               	movf	??_set_time,w
  4298     0F40  00F5               	movwf	___awdiv@dividend
  4299     0F41  084D               	movf	??_set_time+1,w
  4300     0F42  00F6               	movwf	___awdiv@dividend+1
  4301     0F43  120A  158A  205F  120A  158A  	fcall	___awdiv
  4302     0F48  0873               	movf	?___awdiv,w
  4303     0F49  3E30               	addlw	48
  4304     0F4A  160A  118A  22CD  120A  158A  	fcall	_clcd_putch
  4305                           
  4306                           ;helper.c: 428:         clcd_putch(newHr % 10 + '0', (0xC0 + 1));
  4307     0F4F  30C1               	movlw	193
  4308     0F50  1283               	bcf	3,5	;RP0=0, select bank0
  4309     0F51  1303               	bcf	3,6	;RP1=0, select bank0
  4310     0F52  00C9               	movwf	clcd_putch@addr
  4311     0F53  300A               	movlw	10
  4312     0F54  00F3               	movwf	___awmod@divisor
  4313     0F55  3000               	movlw	0
  4314     0F56  00F4               	movwf	___awmod@divisor+1
  4315     0F57  0836               	movf	_newHr,w
  4316     0F58  00CC               	movwf	??_set_time
  4317     0F59  01CD               	clrf	??_set_time+1
  4318     0F5A  084C               	movf	??_set_time,w
  4319     0F5B  00F5               	movwf	___awmod@dividend
  4320     0F5C  084D               	movf	??_set_time+1,w
  4321     0F5D  00F6               	movwf	___awmod@dividend+1
  4322     0F5E  120A  158A  2006  120A  158A  	fcall	___awmod
  4323     0F63  0873               	movf	?___awmod,w
  4324     0F64  3E30               	addlw	48
  4325     0F65  160A  118A  22CD  120A  158A  	fcall	_clcd_putch
  4326                           
  4327                           ;helper.c: 429:         clcd_putch(':', (0xC0 + 2));
  4328     0F6A  30C2               	movlw	194
  4329     0F6B  1283               	bcf	3,5	;RP0=0, select bank0
  4330     0F6C  1303               	bcf	3,6	;RP1=0, select bank0
  4331     0F6D  00C9               	movwf	clcd_putch@addr
  4332     0F6E  303A               	movlw	58
  4333     0F6F  160A  118A  22CD  120A  158A  	fcall	_clcd_putch
  4334                           
  4335                           ;helper.c: 431:         clcd_putch(newMin / 10 + '0', (0xC0 + 3));
  4336     0F74  30C3               	movlw	195
  4337     0F75  1283               	bcf	3,5	;RP0=0, select bank0
  4338     0F76  1303               	bcf	3,6	;RP1=0, select bank0
  4339     0F77  00C9               	movwf	clcd_putch@addr
  4340     0F78  300A               	movlw	10
  4341     0F79  00F3               	movwf	___awdiv@divisor
  4342     0F7A  3000               	movlw	0
  4343     0F7B  00F4               	movwf	___awdiv@divisor+1
  4344     0F7C  0837               	movf	_newMin,w
  4345     0F7D  00CC               	movwf	??_set_time
  4346     0F7E  01CD               	clrf	??_set_time+1
  4347     0F7F  084C               	movf	??_set_time,w
  4348     0F80  00F5               	movwf	___awdiv@dividend
  4349     0F81  084D               	movf	??_set_time+1,w
  4350     0F82  00F6               	movwf	___awdiv@dividend+1
  4351     0F83  120A  158A  205F  120A  158A  	fcall	___awdiv
  4352     0F88  0873               	movf	?___awdiv,w
  4353     0F89  3E30               	addlw	48
  4354     0F8A  160A  118A  22CD  120A  158A  	fcall	_clcd_putch
  4355                           
  4356                           ;helper.c: 432:         clcd_putch(newMin % 10 + '0', (0xC0 + 4));
  4357     0F8F  30C4               	movlw	196
  4358     0F90  1283               	bcf	3,5	;RP0=0, select bank0
  4359     0F91  1303               	bcf	3,6	;RP1=0, select bank0
  4360     0F92  00C9               	movwf	clcd_putch@addr
  4361     0F93  300A               	movlw	10
  4362     0F94  00F3               	movwf	___awmod@divisor
  4363     0F95  3000               	movlw	0
  4364     0F96  00F4               	movwf	___awmod@divisor+1
  4365     0F97  0837               	movf	_newMin,w
  4366     0F98  00CC               	movwf	??_set_time
  4367     0F99  01CD               	clrf	??_set_time+1
  4368     0F9A  084C               	movf	??_set_time,w
  4369     0F9B  00F5               	movwf	___awmod@dividend
  4370     0F9C  084D               	movf	??_set_time+1,w
  4371     0F9D  00F6               	movwf	___awmod@dividend+1
  4372     0F9E  120A  158A  2006  120A  158A  	fcall	___awmod
  4373     0FA3  0873               	movf	?___awmod,w
  4374     0FA4  3E30               	addlw	48
  4375     0FA5  160A  118A  22CD  120A  158A  	fcall	_clcd_putch
  4376                           
  4377                           ;helper.c: 433:         clcd_putch(':', (0xC0 + 5));
  4378     0FAA  30C5               	movlw	197
  4379     0FAB  1283               	bcf	3,5	;RP0=0, select bank0
  4380     0FAC  1303               	bcf	3,6	;RP1=0, select bank0
  4381     0FAD  00C9               	movwf	clcd_putch@addr
  4382     0FAE  303A               	movlw	58
  4383     0FAF  160A  118A  22CD  120A  158A  	fcall	_clcd_putch
  4384                           
  4385                           ;helper.c: 435:         clcd_putch(newSec / 10 + '0', (0xC0 + 6));
  4386     0FB4  30C6               	movlw	198
  4387     0FB5  1283               	bcf	3,5	;RP0=0, select bank0
  4388     0FB6  1303               	bcf	3,6	;RP1=0, select bank0
  4389     0FB7  00C9               	movwf	clcd_putch@addr
  4390     0FB8  300A               	movlw	10
  4391     0FB9  00F3               	movwf	___awdiv@divisor
  4392     0FBA  3000               	movlw	0
  4393     0FBB  00F4               	movwf	___awdiv@divisor+1
  4394     0FBC  0838               	movf	_newSec,w
  4395     0FBD  00CC               	movwf	??_set_time
  4396     0FBE  01CD               	clrf	??_set_time+1
  4397     0FBF  084C               	movf	??_set_time,w
  4398     0FC0  00F5               	movwf	___awdiv@dividend
  4399     0FC1  084D               	movf	??_set_time+1,w
  4400     0FC2  00F6               	movwf	___awdiv@dividend+1
  4401     0FC3  120A  158A  205F  120A  158A  	fcall	___awdiv
  4402     0FC8  0873               	movf	?___awdiv,w
  4403     0FC9  3E30               	addlw	48
  4404     0FCA  160A  118A  22CD  120A  158A  	fcall	_clcd_putch
  4405                           
  4406                           ;helper.c: 436:         clcd_putch(newSec % 10 + '0', (0xC0 + 7));
  4407     0FCF  30C7               	movlw	199
  4408     0FD0  1283               	bcf	3,5	;RP0=0, select bank0
  4409     0FD1  1303               	bcf	3,6	;RP1=0, select bank0
  4410     0FD2  00C9               	movwf	clcd_putch@addr
  4411     0FD3  300A               	movlw	10
  4412     0FD4  00F3               	movwf	___awmod@divisor
  4413     0FD5  3000               	movlw	0
  4414     0FD6  00F4               	movwf	___awmod@divisor+1
  4415     0FD7  0838               	movf	_newSec,w
  4416     0FD8  00CC               	movwf	??_set_time
  4417     0FD9  01CD               	clrf	??_set_time+1
  4418     0FDA  084C               	movf	??_set_time,w
  4419     0FDB  00F5               	movwf	___awmod@dividend
  4420     0FDC  084D               	movf	??_set_time+1,w
  4421     0FDD  00F6               	movwf	___awmod@dividend+1
  4422     0FDE  120A  158A  2006  120A  158A  	fcall	___awmod
  4423     0FE3  0873               	movf	?___awmod,w
  4424     0FE4  3E30               	addlw	48
  4425     0FE5  160A  118A  22CD  120A  158A  	fcall	_clcd_putch
  4426                           
  4427                           ;helper.c: 437:     } else {
  4428     0FEA  2FFF               	goto	l458
  4429     0FEB                     l4550:
  4430                           
  4431                           ;helper.c: 439:         clcd_putch(0x5F, (0xC0 + j));
  4432     0FEB  082D               	movf	set_time@j,w
  4433     0FEC  3EC0               	addlw	192
  4434     0FED  00C9               	movwf	clcd_putch@addr
  4435     0FEE  305F               	movlw	95
  4436     0FEF  160A  118A  22CD  120A  158A  	fcall	_clcd_putch
  4437                           
  4438                           ;helper.c: 440:         clcd_putch(0x5F, (0xC0 + j + 1));
  4439     0FF4  1283               	bcf	3,5	;RP0=0, select bank0
  4440     0FF5  1303               	bcf	3,6	;RP1=0, select bank0
  4441     0FF6  082D               	movf	set_time@j,w
  4442     0FF7  3EC1               	addlw	193
  4443     0FF8  00C9               	movwf	clcd_putch@addr
  4444     0FF9  305F               	movlw	95
  4445     0FFA  160A  118A  22CD  120A  158A  	fcall	_clcd_putch
  4446     0FFF                     l458:
  4447     0FFF  0008               	return
  4448     1000                     __end_of_set_time:
  4449                           
  4450                           	psect	text4
  4451     1378                     __ptext4:	
  4452 ;; *************** function _strcpy *****************
  4453 ;; Defined at:
  4454 ;;		line 3 in file "C:\Program Files\Microchip\xc8\v3.10\pic\sources\c99\common\strcpy.c"
  4455 ;; Parameters:    Size  Location     Type
  4456 ;;  dest            1    3[COMMON] PTR unsigned char 
  4457 ;;		 -> set_time@newTime(7), main@event(3), 
  4458 ;;  src             2    4[COMMON] PTR const unsigned char 
  4459 ;;		 -> time(7), STR_9(3), STR_6(3), STR_5(3), 
  4460 ;;		 -> STR_4(3), STR_3(3), STR_2(3), STR_1(3), 
  4461 ;; Auto vars:     Size  Location     Type
  4462 ;;  d               1    6[COMMON] PTR unsigned char 
  4463 ;;		 -> set_time@newTime(7), main@event(3), 
  4464 ;; Return value:  Size  Location     Type
  4465 ;;                  1    3[COMMON] PTR unsigned char 
  4466 ;; Registers used:
  4467 ;;		wreg, fsr0l, fsr0h, status,2, status,0, pclath, btemp1
  4468 ;; Tracked objects:
  4469 ;;		On entry : 0/0
  4470 ;;		On exit  : 0/0
  4471 ;;		Unchanged: 0/0
  4472 ;; Data sizes:     COMMON   BANK0   BANK1   BANK3   BANK2
  4473 ;;      Params:         3       0       0       0       0
  4474 ;;      Locals:         1       0       0       0       0
  4475 ;;      Temps:          0       3       0       0       0
  4476 ;;      Totals:         4       3       0       0       0
  4477 ;;Total ram usage:        7 bytes
  4478 ;; Hardware stack levels used: 2
  4479 ;; Hardware stack levels required when called: 1
  4480 ;; This function calls:
  4481 ;;		Nothing
  4482 ;; This function is called by:
  4483 ;;		_main
  4484 ;;		_set_time
  4485 ;; This function uses a non-reentrant model
  4486 ;;
  4487                           
  4488     1378                     _strcpy:	
  4489                           ;psect for function _strcpy
  4490                           
  4491     1378                     l3864:	
  4492                           ;incstack = 0
  4493                           ; Regs used in _strcpy: [wreg-fsr0h+status,2+status,0+pclath+btemp1]
  4494                           
  4495     1378  0873               	movf	strcpy@dest,w
  4496     1379  00F6               	movwf	strcpy@d
  4497     137A                     l3866:
  4498     137A  0875               	movf	strcpy@src+1,w
  4499     137B  1283               	bcf	3,5	;RP0=0, select bank0
  4500     137C  1303               	bcf	3,6	;RP1=0, select bank0
  4501     137D  00C6               	movwf	??_strcpy+1
  4502     137E  0874               	movf	strcpy@src,w
  4503     137F  00C5               	movwf	??_strcpy
  4504     1380  0AF4               	incf	strcpy@src,f
  4505     1381  1903               	skipnz
  4506     1382  0AF5               	incf	strcpy@src+1,f
  4507     1383  0846               	movf	??_strcpy+1,w
  4508     1384  00FF               	movwf	btemp1
  4509     1385  0845               	movf	??_strcpy,w
  4510     1386  0084               	movwf	4
  4511     1387  160A  118A  2000  160A  118A  	fcall	stringtab
  4512     138C  00C7               	movwf	??_strcpy+2
  4513     138D  0876               	movf	strcpy@d,w
  4514     138E  0AF6               	incf	strcpy@d,f
  4515     138F  0084               	movwf	4
  4516     1390  0847               	movf	??_strcpy+2,w
  4517     1391  1383               	bcf	3,7	;select IRP bank0
  4518     1392  0080               	movwf	0
  4519     1393  0800               	movf	0,w
  4520     1394  1D03               	btfss	3,2
  4521     1395  2B97               	goto	u3641
  4522     1396  2B98               	goto	u3640
  4523     1397                     u3641:
  4524     1397  2B7A               	goto	l3866
  4525     1398                     u3640:
  4526     1398                     l1151:
  4527     1398  0008               	return
  4528     1399                     __end_of_strcpy:
  4529                           
  4530                           	psect	text5
  4531     0A32                     __ptext5:	
  4532 ;; *************** function _read_digital_keypad *****************
  4533 ;; Defined at:
  4534 ;;		line 38 in file "digital_keypad.c"
  4535 ;; Parameters:    Size  Location     Type
  4536 ;;  mode            1    wreg     unsigned char 
  4537 ;; Auto vars:     Size  Location     Type
  4538 ;;  mode            1    4[COMMON] unsigned char 
  4539 ;;  k               1    3[COMMON] unsigned char 
  4540 ;;  current         1    5[COMMON] unsigned char 
  4541 ;; Return value:  Size  Location     Type
  4542 ;;                  1    wreg      unsigned char 
  4543 ;; Registers used:
  4544 ;;		wreg, fsr0l, fsr0h, status,2, status,0
  4545 ;; Tracked objects:
  4546 ;;		On entry : 0/0
  4547 ;;		On exit  : 0/0
  4548 ;;		Unchanged: 0/0
  4549 ;; Data sizes:     COMMON   BANK0   BANK1   BANK3   BANK2
  4550 ;;      Params:         0       0       0       0       0
  4551 ;;      Locals:         3       0       0       0       0
  4552 ;;      Temps:          0       0       0       0       0
  4553 ;;      Totals:         3       0       0       0       0
  4554 ;;Total ram usage:        3 bytes
  4555 ;; Hardware stack levels used: 1
  4556 ;; Hardware stack levels required when called: 1
  4557 ;; This function calls:
  4558 ;;		Nothing
  4559 ;; This function is called by:
  4560 ;;		_main
  4561 ;; This function uses a non-reentrant model
  4562 ;;
  4563                           
  4564     0A32                     _read_digital_keypad:	
  4565                           ;psect for function _read_digital_keypad
  4566                           
  4567                           
  4568                           ;incstack = 0
  4569                           ; Regs used in _read_digital_keypad: [wreg-fsr0h+status,2+status,0]
  4570                           ;read_digital_keypad@mode stored from wreg
  4571     0A32  00F4               	movwf	read_digital_keypad@mode
  4572     0A33                     l4002:
  4573                           
  4574                           ;digital_keypad.c: 39:     static unsigned char once = 1;;digital_keypad.c: 40:     stat
      +                          ic unsigned char long_press_flag = 0;;digital_keypad.c: 41:     static unsigned char pre
      +                          v_key = 0x3F;;digital_keypad.c: 43:     unsigned char current = PORTB & 0x3F;
  4575     0A33  1283               	bcf	3,5	;RP0=0, select bank0
  4576     0A34  1303               	bcf	3,6	;RP1=0, select bank0
  4577     0A35  0806               	movf	6,w	;volatile
  4578     0A36  00F5               	movwf	read_digital_keypad@current
  4579     0A37                     l4004:
  4580     0A37  303F               	movlw	63
  4581     0A38  05F5               	andwf	read_digital_keypad@current,f
  4582     0A39                     l4006:
  4583                           
  4584                           ;digital_keypad.c: 45:     if (mode == 0)
  4585     0A39  0874               	movf	read_digital_keypad@mode,w
  4586     0A3A  1D03               	btfss	3,2
  4587     0A3B  2A3D               	goto	u3851
  4588     0A3C  2A3E               	goto	u3850
  4589     0A3D                     u3851:
  4590     0A3D  2A40               	goto	l4014
  4591     0A3E                     u3850:
  4592     0A3E                     l4008:
  4593                           
  4594                           ;digital_keypad.c: 46:         return current;
  4595     0A3E  0875               	movf	read_digital_keypad@current,w
  4596     0A3F  2AC3               	goto	l267
  4597     0A40                     l4014:
  4598     0A40  0374               	decf	read_digital_keypad@mode,w
  4599     0A41  1D03               	btfss	3,2
  4600     0A42  2A44               	goto	u3861
  4601     0A43  2A45               	goto	u3860
  4602     0A44                     u3861:
  4603     0A44  2AA1               	goto	l4064
  4604     0A45                     u3860:
  4605     0A45                     l4016:
  4606                           
  4607                           ;digital_keypad.c: 51:         if (current != 0x3F && once) {
  4608     0A45  303F               	movlw	63
  4609     0A46  0675               	xorwf	read_digital_keypad@current,w
  4610     0A47  1903               	btfsc	3,2
  4611     0A48  2A4A               	goto	u3871
  4612     0A49  2A4B               	goto	u3870
  4613     0A4A                     u3871:
  4614     0A4A  2A53               	goto	l4024
  4615     0A4B                     u3870:
  4616     0A4B                     l4018:
  4617     0A4B  0879               	movf	read_digital_keypad@once,w
  4618     0A4C  1903               	btfsc	3,2
  4619     0A4D  2A4F               	goto	u3881
  4620     0A4E  2A50               	goto	u3880
  4621     0A4F                     u3881:
  4622     0A4F  2A53               	goto	l4024
  4623     0A50                     u3880:
  4624     0A50                     l4020:
  4625                           
  4626                           ;digital_keypad.c: 52:             once = 0;
  4627     0A50  01F9               	clrf	read_digital_keypad@once
  4628     0A51                     l4022:
  4629                           
  4630                           ;digital_keypad.c: 53:             prev_key = current;
  4631     0A51  0875               	movf	read_digital_keypad@current,w
  4632     0A52  00E5               	movwf	read_digital_keypad@prev_key
  4633     0A53                     l4024:
  4634                           
  4635                           ;digital_keypad.c: 56:         if (current != 0x3F && once) {
  4636     0A53  303F               	movlw	63
  4637     0A54  0675               	xorwf	read_digital_keypad@current,w
  4638     0A55  1903               	btfsc	3,2
  4639     0A56  2A58               	goto	u3891
  4640     0A57  2A59               	goto	u3890
  4641     0A58                     u3891:
  4642     0A58  2A78               	goto	l4042
  4643     0A59                     u3890:
  4644     0A59                     l4026:
  4645     0A59  0879               	movf	read_digital_keypad@once,w
  4646     0A5A  1903               	btfsc	3,2
  4647     0A5B  2A5D               	goto	u3901
  4648     0A5C  2A5E               	goto	u3900
  4649     0A5D                     u3901:
  4650     0A5D  2A78               	goto	l4042
  4651     0A5E                     u3900:
  4652     0A5E                     l4028:
  4653                           
  4654                           ;digital_keypad.c: 57:             if (current == 0x3E || current == 0x3D ||
  4655     0A5E  303E               	movlw	62
  4656     0A5F  0675               	xorwf	read_digital_keypad@current,w
  4657     0A60  1903               	btfsc	3,2
  4658     0A61  2A63               	goto	u3911
  4659     0A62  2A64               	goto	u3910
  4660     0A63                     u3911:
  4661     0A63  2A76               	goto	l4036
  4662     0A64                     u3910:
  4663     0A64                     l4030:
  4664     0A64  303D               	movlw	61
  4665     0A65  0675               	xorwf	read_digital_keypad@current,w
  4666     0A66  1903               	btfsc	3,2
  4667     0A67  2A69               	goto	u3921
  4668     0A68  2A6A               	goto	u3920
  4669     0A69                     u3921:
  4670     0A69  2A76               	goto	l4036
  4671     0A6A                     u3920:
  4672     0A6A                     l4032:
  4673     0A6A  303B               	movlw	59
  4674     0A6B  0675               	xorwf	read_digital_keypad@current,w
  4675     0A6C  1903               	btfsc	3,2
  4676     0A6D  2A6F               	goto	u3931
  4677     0A6E  2A70               	goto	u3930
  4678     0A6F                     u3931:
  4679     0A6F  2A76               	goto	l4036
  4680     0A70                     u3930:
  4681     0A70                     l4034:
  4682     0A70  301F               	movlw	31
  4683     0A71  0675               	xorwf	read_digital_keypad@current,w
  4684     0A72  1D03               	btfss	3,2
  4685     0A73  2A75               	goto	u3941
  4686     0A74  2A76               	goto	u3940
  4687     0A75                     u3941:
  4688     0A75  2A78               	goto	l4042
  4689     0A76                     u3940:
  4690     0A76                     l4036:
  4691                           
  4692                           ;digital_keypad.c: 58:                 current == 0x3B || current == 0x1F) {;digital_key
      +                          pad.c: 59:                 once = 0;
  4693     0A76  01F9               	clrf	read_digital_keypad@once
  4694     0A77  2A3E               	goto	l4008
  4695     0A78                     l4042:
  4696                           
  4697                           ;digital_keypad.c: 65:         if ((current == 0x37 || current == 0x2F) && once) {
  4698     0A78  3037               	movlw	55
  4699     0A79  0675               	xorwf	read_digital_keypad@current,w
  4700     0A7A  1903               	btfsc	3,2
  4701     0A7B  2A7D               	goto	u3951
  4702     0A7C  2A7E               	goto	u3950
  4703     0A7D                     u3951:
  4704     0A7D  2A84               	goto	l4046
  4705     0A7E                     u3950:
  4706     0A7E                     l4044:
  4707     0A7E  302F               	movlw	47
  4708     0A7F  0675               	xorwf	read_digital_keypad@current,w
  4709     0A80  1D03               	btfss	3,2
  4710     0A81  2A83               	goto	u3961
  4711     0A82  2A84               	goto	u3960
  4712     0A83                     u3961:
  4713     0A83  2A8C               	goto	l4052
  4714     0A84                     u3960:
  4715     0A84                     l4046:
  4716     0A84  0879               	movf	read_digital_keypad@once,w
  4717     0A85  1903               	btfsc	3,2
  4718     0A86  2A88               	goto	u3971
  4719     0A87  2A89               	goto	u3970
  4720     0A88                     u3971:
  4721     0A88  2A8C               	goto	l4052
  4722     0A89                     u3970:
  4723     0A89                     l4048:
  4724                           
  4725                           ;digital_keypad.c: 66:             once = 0;
  4726     0A89  01F9               	clrf	read_digital_keypad@once
  4727     0A8A                     l4050:
  4728                           
  4729                           ;digital_keypad.c: 67:             prev_key = current;
  4730     0A8A  0875               	movf	read_digital_keypad@current,w
  4731     0A8B  00E5               	movwf	read_digital_keypad@prev_key
  4732     0A8C                     l4052:
  4733                           
  4734                           ;digital_keypad.c: 71:         if (current == 0x3F && !once) {
  4735     0A8C  303F               	movlw	63
  4736     0A8D  0675               	xorwf	read_digital_keypad@current,w
  4737     0A8E  1D03               	btfss	3,2
  4738     0A8F  2A91               	goto	u3981
  4739     0A90  2A92               	goto	u3980
  4740     0A91                     u3981:
  4741     0A91  2AA9               	goto	l4074
  4742     0A92                     u3980:
  4743     0A92                     l4054:
  4744     0A92  0879               	movf	read_digital_keypad@once,w
  4745     0A93  1D03               	btfss	3,2
  4746     0A94  2A96               	goto	u3991
  4747     0A95  2A97               	goto	u3990
  4748     0A96                     u3991:
  4749     0A96  2AA9               	goto	l4074
  4750     0A97                     u3990:
  4751     0A97                     l4056:
  4752                           
  4753                           ;digital_keypad.c: 72:             once = 1;
  4754     0A97  3001               	movlw	1
  4755     0A98  00F9               	movwf	read_digital_keypad@once
  4756     0A99                     l4058:
  4757                           
  4758                           ;digital_keypad.c: 74:             if (long_press_flag) {
  4759     0A99  0877               	movf	read_digital_keypad@long_press_flag,w
  4760     0A9A  1903               	btfsc	3,2
  4761     0A9B  2A9D               	goto	u4001
  4762     0A9C  2A9E               	goto	u4000
  4763     0A9D                     u4001:
  4764     0A9D  2AA3               	goto	l4068
  4765     0A9E                     u4000:
  4766     0A9E                     l4060:
  4767                           
  4768                           ;digital_keypad.c: 76:                 long_press_flag = 0;
  4769     0A9E  01F7               	clrf	read_digital_keypad@long_press_flag
  4770     0A9F                     l4062:
  4771                           
  4772                           ;digital_keypad.c: 77:                 prev_key = 0x3F;
  4773     0A9F  303F               	movlw	63
  4774     0AA0  00E5               	movwf	read_digital_keypad@prev_key
  4775     0AA1                     l4064:
  4776                           
  4777                           ;digital_keypad.c: 78:                 return 0x3F;
  4778     0AA1  303F               	movlw	63
  4779     0AA2  2AC3               	goto	l267
  4780     0AA3                     l4068:
  4781                           
  4782                           ;digital_keypad.c: 82:             unsigned char k = prev_key;
  4783     0AA3  0865               	movf	read_digital_keypad@prev_key,w
  4784     0AA4  00F3               	movwf	read_digital_keypad@k
  4785     0AA5                     l4070:
  4786                           
  4787                           ;digital_keypad.c: 83:             prev_key = 0x3F;
  4788     0AA5  303F               	movlw	63
  4789     0AA6  00E5               	movwf	read_digital_keypad@prev_key
  4790                           
  4791                           ;digital_keypad.c: 84:             return k;
  4792     0AA7  0873               	movf	read_digital_keypad@k,w
  4793     0AA8  2AC3               	goto	l267
  4794     0AA9                     l4074:
  4795                           
  4796                           ;digital_keypad.c: 87:         if (long_press && !long_press_flag) {
  4797     0AA9  0878               	movf	_long_press,w	;volatile
  4798     0AAA  1903               	btfsc	3,2
  4799     0AAB  2AAD               	goto	u4011
  4800     0AAC  2AAE               	goto	u4010
  4801     0AAD                     u4011:
  4802     0AAD  2AA1               	goto	l4064
  4803     0AAE                     u4010:
  4804     0AAE                     l4076:
  4805     0AAE  0877               	movf	read_digital_keypad@long_press_flag,w
  4806     0AAF  1D03               	btfss	3,2
  4807     0AB0  2AB2               	goto	u4021
  4808     0AB1  2AB3               	goto	u4020
  4809     0AB2                     u4021:
  4810     0AB2  2AA1               	goto	l4064
  4811     0AB3                     u4020:
  4812     0AB3                     l4078:
  4813                           
  4814                           ;digital_keypad.c: 88:             long_press = 0;
  4815     0AB3  01F8               	clrf	_long_press	;volatile
  4816     0AB4                     l4080:
  4817                           
  4818                           ;digital_keypad.c: 89:             long_press_flag = 1;
  4819     0AB4  3001               	movlw	1
  4820     0AB5  00F7               	movwf	read_digital_keypad@long_press_flag
  4821                           
  4822                           ;digital_keypad.c: 90:             switch (held_key) {
  4823     0AB6  2ABB               	goto	l4096
  4824     0AB7                     l4082:
  4825     0AB7  30B7               	movlw	183
  4826     0AB8  2AC3               	goto	l267
  4827     0AB9                     l4086:
  4828     0AB9  30AF               	movlw	175
  4829     0ABA  2AC3               	goto	l267
  4830     0ABB                     l4096:
  4831     0ABB  087A               	movf	_held_key,w	;volatile
  4832                           
  4833                           ; Switch size 1, requested type "simple"
  4834                           ; Number of cases is 2, Range of values is 47 to 55
  4835                           ; switch strategies available:
  4836                           ; Name         Instructions Cycles
  4837                           ; simple_byte            7     4 (average)
  4838                           ; direct_byte           38    11 (fixed)
  4839                           ; jumptable            263     9 (fixed)
  4840                           ;	Chosen strategy is simple_byte
  4841     0ABC  3A2F               	xorlw	47	; case 47
  4842     0ABD  1903               	skipnz
  4843     0ABE  2AB9               	goto	l4086
  4844     0ABF  3A18               	xorlw	24	; case 55
  4845     0AC0  1903               	skipnz
  4846     0AC1  2AB7               	goto	l4082
  4847     0AC2  2AA1               	goto	l4064
  4848     0AC3                     l267:
  4849     0AC3  0008               	return
  4850     0AC4                     __end_of_read_digital_keypad:
  4851                           
  4852                           	psect	text6
  4853     1357                     __ptext6:	
  4854 ;; *************** function _read_adc *****************
  4855 ;; Defined at:
  4856 ;;		line 20 in file "adc.c"
  4857 ;; Parameters:    Size  Location     Type
  4858 ;;  channel         1    wreg     unsigned char 
  4859 ;; Auto vars:     Size  Location     Type
  4860 ;;  channel         1    0[BANK0 ] unsigned char 
  4861 ;;  reg_val         2    1[BANK0 ] unsigned short 
  4862 ;; Return value:  Size  Location     Type
  4863 ;;                  2    3[COMMON] unsigned short 
  4864 ;; Registers used:
  4865 ;;		wreg, status,2, status,0
  4866 ;; Tracked objects:
  4867 ;;		On entry : 0/0
  4868 ;;		On exit  : 0/0
  4869 ;;		Unchanged: 0/0
  4870 ;; Data sizes:     COMMON   BANK0   BANK1   BANK3   BANK2
  4871 ;;      Params:         2       0       0       0       0
  4872 ;;      Locals:         0       3       0       0       0
  4873 ;;      Temps:          1       0       0       0       0
  4874 ;;      Totals:         3       3       0       0       0
  4875 ;;Total ram usage:        6 bytes
  4876 ;; Hardware stack levels used: 1
  4877 ;; Hardware stack levels required when called: 1
  4878 ;; This function calls:
  4879 ;;		Nothing
  4880 ;; This function is called by:
  4881 ;;		_main
  4882 ;; This function uses a non-reentrant model
  4883 ;;
  4884                           
  4885     1357                     _read_adc:	
  4886                           ;psect for function _read_adc
  4887                           
  4888                           
  4889                           ;incstack = 0
  4890                           ; Regs used in _read_adc: [wreg+status,2+status,0]
  4891                           ;read_adc@channel stored from wreg
  4892     1357  1283               	bcf	3,5	;RP0=0, select bank0
  4893     1358  1303               	bcf	3,6	;RP1=0, select bank0
  4894     1359  00C5               	movwf	read_adc@channel
  4895     135A                     l3994:
  4896                           
  4897                           ;adc.c: 21:     unsigned short reg_val;;adc.c: 24:     ADCON0 = (ADCON0 & 0xC7) | (chann
      +                          el << 3);
  4898     135A  0845               	movf	read_adc@channel,w
  4899     135B  00F5               	movwf	??_read_adc
  4900     135C  3003               	movlw	3
  4901     135D                     u3835:
  4902     135D  1003               	clrc
  4903     135E  0DF5               	rlf	??_read_adc,f
  4904     135F  3EFF               	addlw	-1
  4905     1360  1D03               	skipz
  4906     1361  2B5D               	goto	u3835
  4907     1362  081F               	movf	31,w	;volatile
  4908     1363  39C7               	andlw	199
  4909     1364  0475               	iorwf	??_read_adc,w
  4910     1365  009F               	movwf	31	;volatile
  4911     1366                     l3996:
  4912                           
  4913                           ;adc.c: 27:     GO = 1;
  4914     1366  151F               	bsf	31,2	;volatile
  4915     1367                     l504:	
  4916                           ;adc.c: 30:     while(nDONE);
  4917                           
  4918     1367  191F               	btfsc	31,2	;volatile
  4919     1368  2B6A               	goto	u3841
  4920     1369  2B6B               	goto	u3840
  4921     136A                     u3841:
  4922     136A  2B67               	goto	l504
  4923     136B                     u3840:
  4924     136B                     l3998:
  4925                           
  4926                           ;adc.c: 32:     reg_val = (ADRESH << 8) | ADRESL;
  4927     136B  081E               	movf	30,w	;volatile
  4928     136C  00C7               	movwf	read_adc@reg_val+1
  4929     136D  1683               	bsf	3,5	;RP0=1, select bank1
  4930     136E  1303               	bcf	3,6	;RP1=0, select bank1
  4931     136F  081E               	movf	30,w	;volatile
  4932     1370  1283               	bcf	3,5	;RP0=0, select bank0
  4933     1371  1303               	bcf	3,6	;RP1=0, select bank0
  4934     1372  00C6               	movwf	read_adc@reg_val
  4935                           
  4936                           ;adc.c: 34:     return reg_val;
  4937     1373  0847               	movf	read_adc@reg_val+1,w
  4938     1374  00F4               	movwf	?_read_adc+1
  4939     1375  0846               	movf	read_adc@reg_val,w
  4940     1376  00F3               	movwf	?_read_adc
  4941     1377                     l507:
  4942     1377  0008               	return
  4943     1378                     __end_of_read_adc:
  4944                           
  4945                           	psect	text7
  4946     0407                     __ptext7:	
  4947 ;; *************** function _menu_screen *****************
  4948 ;; Defined at:
  4949 ;;		line 187 in file "helper.c"
  4950 ;; Parameters:    Size  Location     Type
  4951 ;;  reset_flag      1    wreg     unsigned char 
  4952 ;;  key             1    6[BANK0 ] unsigned char 
  4953 ;; Auto vars:     Size  Location     Type
  4954 ;;  reset_flag      1    9[BANK0 ] unsigned char 
  4955 ;; Return value:  Size  Location     Type
  4956 ;;                  1    wreg      unsigned char 
  4957 ;; Registers used:
  4958 ;;		wreg, fsr0l, fsr0h, status,2, status,0, pclath, btemp1, cstack
  4959 ;; Tracked objects:
  4960 ;;		On entry : 0/0
  4961 ;;		On exit  : 0/0
  4962 ;;		Unchanged: 0/0
  4963 ;; Data sizes:     COMMON   BANK0   BANK1   BANK3   BANK2
  4964 ;;      Params:         0       1       0       0       0
  4965 ;;      Locals:         0       1       0       0       0
  4966 ;;      Temps:          0       2       0       0       0
  4967 ;;      Totals:         0       4       0       0       0
  4968 ;;Total ram usage:        4 bytes
  4969 ;; Hardware stack levels used: 1
  4970 ;; Hardware stack levels required when called: 2
  4971 ;; This function calls:
  4972 ;;		_clcd_print
  4973 ;;		_clcd_putch
  4974 ;;		_clear_screen
  4975 ;; This function is called by:
  4976 ;;		_main
  4977 ;; This function uses a non-reentrant model
  4978 ;;
  4979                           
  4980     0407                     _menu_screen:	
  4981                           ;psect for function _menu_screen
  4982                           
  4983                           
  4984                           ;incstack = 0
  4985                           ; Regs used in _menu_screen: [wreg-fsr0h+status,2+status,0+pclath+btemp1+cstack]
  4986                           ;menu_screen@reset_flag stored from wreg
  4987     0407  1283               	bcf	3,5	;RP0=0, select bank0
  4988     0408  1303               	bcf	3,6	;RP1=0, select bank0
  4989     0409  00CE               	movwf	menu_screen@reset_flag
  4990     040A                     l4232:
  4991                           
  4992                           ;helper.c: 188:     static unsigned char menu_pos;;helper.c: 190:     if (reset_flag == 
      +                          0x13) {
  4993     040A  3013               	movlw	19
  4994     040B  064E               	xorwf	menu_screen@reset_flag,w
  4995     040C  1D03               	btfss	3,2
  4996     040D  2C0F               	goto	u4161
  4997     040E  2C10               	goto	u4160
  4998     040F                     u4161:
  4999     040F  2C1A               	goto	l4240
  5000     0410                     u4160:
  5001     0410                     l4234:
  5002                           
  5003                           ;helper.c: 191:         clear_screen();
  5004     0410  160A  118A  2281  120A  118A  	fcall	_clear_screen
  5005     0415                     l4236:
  5006                           
  5007                           ;helper.c: 192:         return_time = 5;
  5008     0415  3005               	movlw	5
  5009     0416  1283               	bcf	3,5	;RP0=0, select bank0
  5010     0417  1303               	bcf	3,6	;RP1=0, select bank0
  5011     0418  00B4               	movwf	_return_time
  5012     0419                     l4238:
  5013                           
  5014                           ;helper.c: 193:         menu_pos = 0;
  5015     0419  01B0               	clrf	menu_screen@menu_pos
  5016     041A                     l4240:
  5017                           
  5018                           ;helper.c: 197:     if (key == 0x2F && menu_pos < 4) {
  5019     041A  302F               	movlw	47
  5020     041B  064B               	xorwf	menu_screen@key,w
  5021     041C  1D03               	btfss	3,2
  5022     041D  2C1F               	goto	u4171
  5023     041E  2C20               	goto	u4170
  5024     041F                     u4171:
  5025     041F  2C32               	goto	l4250
  5026     0420                     u4170:
  5027     0420                     l4242:
  5028     0420  3004               	movlw	4
  5029     0421  0230               	subwf	menu_screen@menu_pos,w
  5030     0422  1803               	skipnc
  5031     0423  2C25               	goto	u4181
  5032     0424  2C26               	goto	u4180
  5033     0425                     u4181:
  5034     0425  2C32               	goto	l4250
  5035     0426                     u4180:
  5036     0426                     l4244:
  5037                           
  5038                           ;helper.c: 198:         menu_pos++;
  5039     0426  3001               	movlw	1
  5040     0427  07B0               	addwf	menu_screen@menu_pos,f
  5041     0428                     l4246:
  5042                           
  5043                           ;helper.c: 199:         clear_screen();
  5044     0428  160A  118A  2281  120A  118A  	fcall	_clear_screen
  5045     042D                     l4248:
  5046                           
  5047                           ;helper.c: 200:         return_time = 5;
  5048     042D  3005               	movlw	5
  5049     042E  1283               	bcf	3,5	;RP0=0, select bank0
  5050     042F  1303               	bcf	3,6	;RP1=0, select bank0
  5051     0430  00B4               	movwf	_return_time
  5052                           
  5053                           ;helper.c: 201:     } else if (key == 0x37 && menu_pos > 0) {
  5054     0431  2C40               	goto	l4260
  5055     0432                     l4250:
  5056     0432  3037               	movlw	55
  5057     0433  064B               	xorwf	menu_screen@key,w
  5058     0434  1D03               	btfss	3,2
  5059     0435  2C37               	goto	u4191
  5060     0436  2C38               	goto	u4190
  5061     0437                     u4191:
  5062     0437  2C40               	goto	l4260
  5063     0438                     u4190:
  5064     0438                     l4252:
  5065     0438  0830               	movf	menu_screen@menu_pos,w
  5066     0439  1903               	btfsc	3,2
  5067     043A  2C3C               	goto	u4201
  5068     043B  2C3D               	goto	u4200
  5069     043C                     u4201:
  5070     043C  2C40               	goto	l4260
  5071     043D                     u4200:
  5072     043D                     l4254:
  5073                           
  5074                           ;helper.c: 202:         menu_pos--;
  5075     043D  3001               	movlw	1
  5076     043E  02B0               	subwf	menu_screen@menu_pos,f
  5077     043F  2C28               	goto	l4246
  5078     0440                     l4260:
  5079                           
  5080                           ;helper.c: 207:     if (return_time == 0) {
  5081     0440  0834               	movf	_return_time,w
  5082     0441  1D03               	btfss	3,2
  5083     0442  2C44               	goto	u4211
  5084     0443  2C45               	goto	u4210
  5085     0444                     u4211:
  5086     0444  2C47               	goto	l4266
  5087     0445                     u4210:
  5088     0445                     l4262:
  5089                           
  5090                           ;helper.c: 208:         return 0xA1;
  5091     0445  30A1               	movlw	161
  5092     0446  2CB5               	goto	l387
  5093     0447                     l4266:
  5094                           
  5095                           ;helper.c: 211:     if (menu_pos < 4) {
  5096     0447  3004               	movlw	4
  5097     0448  0230               	subwf	menu_screen@menu_pos,w
  5098     0449  1803               	skipnc
  5099     044A  2C4C               	goto	u4221
  5100     044B  2C4D               	goto	u4220
  5101     044C                     u4221:
  5102     044C  2C80               	goto	l4274
  5103     044D                     u4220:
  5104     044D                     l4268:
  5105                           
  5106                           ;helper.c: 212:         clcd_putch('*', (0x80 + 0));
  5107     044D  3080               	movlw	128
  5108     044E  00C9               	movwf	clcd_putch@addr
  5109     044F  302A               	movlw	42
  5110     0450  160A  118A  22CD  120A  118A  	fcall	_clcd_putch
  5111     0455                     l4270:
  5112                           
  5113                           ;helper.c: 213:         clcd_print(menu[menu_pos], (0x80 + 1));
  5114     0455  1283               	bcf	3,5	;RP0=0, select bank0
  5115     0456  1303               	bcf	3,6	;RP1=0, select bank0
  5116     0457  0830               	movf	menu_screen@menu_pos,w
  5117     0458  00CC               	movwf	??_menu_screen
  5118     0459  074C               	addwf	??_menu_screen,w
  5119     045A  3ED4               	addlw	(low (_menu| 0))& (0+255)
  5120     045B  0084               	movwf	4
  5121     045C  1383               	bcf	3,7	;select IRP bank1
  5122     045D  0800               	movf	0,w
  5123     045E  00C5               	movwf	clcd_print@str
  5124     045F  0A84               	incf	4,f
  5125     0460  0800               	movf	0,w
  5126     0461  0384               	decf	4,f
  5127     0462  00C6               	movwf	clcd_print@str+1
  5128     0463  3081               	movlw	129
  5129     0464  00C7               	movwf	clcd_print@addr
  5130     0465  160A  118A  24CC  120A  118A  	fcall	_clcd_print
  5131     046A                     l4272:
  5132                           
  5133                           ;helper.c: 214:         clcd_print(menu[menu_pos + 1], (0xC0 + 1));
  5134     046A  1283               	bcf	3,5	;RP0=0, select bank0
  5135     046B  1303               	bcf	3,6	;RP1=0, select bank0
  5136     046C  0830               	movf	menu_screen@menu_pos,w
  5137     046D  00CC               	movwf	??_menu_screen
  5138     046E  074C               	addwf	??_menu_screen,w
  5139     046F  3ED6               	addlw	(low ((_menu| 0+2)))& (0+255)
  5140     0470  0084               	movwf	4
  5141     0471  1383               	bcf	3,7	;select IRP bank1
  5142     0472  0800               	movf	0,w
  5143     0473  00C5               	movwf	clcd_print@str
  5144     0474  0A84               	incf	4,f
  5145     0475  0800               	movf	0,w
  5146     0476  0384               	decf	4,f
  5147     0477  00C6               	movwf	clcd_print@str+1
  5148     0478  30C1               	movlw	193
  5149     0479  00C7               	movwf	clcd_print@addr
  5150     047A  160A  118A  24CC  120A  118A  	fcall	_clcd_print
  5151                           
  5152                           ;helper.c: 215:     } else {
  5153     047F  2CB2               	goto	l4280
  5154     0480                     l4274:
  5155                           
  5156                           ;helper.c: 216:         clcd_putch('*', (0xC0 + 0));
  5157     0480  30C0               	movlw	192
  5158     0481  00C9               	movwf	clcd_putch@addr
  5159     0482  302A               	movlw	42
  5160     0483  160A  118A  22CD  120A  118A  	fcall	_clcd_putch
  5161     0488                     l4276:
  5162                           
  5163                           ;helper.c: 217:         clcd_print(menu[menu_pos - 1], (0x80 + 1));
  5164     0488  1283               	bcf	3,5	;RP0=0, select bank0
  5165     0489  1303               	bcf	3,6	;RP1=0, select bank0
  5166     048A  0830               	movf	menu_screen@menu_pos,w
  5167     048B  00CC               	movwf	??_menu_screen
  5168     048C  074C               	addwf	??_menu_screen,w
  5169     048D  3ED2               	addlw	(low ((_menu| 0+254)))& (0+255)
  5170     048E  0084               	movwf	4
  5171     048F  1383               	bcf	3,7	;select IRP bank1
  5172     0490  0800               	movf	0,w
  5173     0491  00C5               	movwf	clcd_print@str
  5174     0492  0A84               	incf	4,f
  5175     0493  0800               	movf	0,w
  5176     0494  0384               	decf	4,f
  5177     0495  00C6               	movwf	clcd_print@str+1
  5178     0496  3081               	movlw	129
  5179     0497  00C7               	movwf	clcd_print@addr
  5180     0498  160A  118A  24CC  120A  118A  	fcall	_clcd_print
  5181     049D                     l4278:
  5182                           
  5183                           ;helper.c: 218:         clcd_print(menu[menu_pos], (0xC0 + 1));
  5184     049D  1283               	bcf	3,5	;RP0=0, select bank0
  5185     049E  1303               	bcf	3,6	;RP1=0, select bank0
  5186     049F  0830               	movf	menu_screen@menu_pos,w
  5187     04A0  00CC               	movwf	??_menu_screen
  5188     04A1  074C               	addwf	??_menu_screen,w
  5189     04A2  3ED4               	addlw	(low (_menu| 0))& (0+255)
  5190     04A3  0084               	movwf	4
  5191     04A4  1383               	bcf	3,7	;select IRP bank1
  5192     04A5  0800               	movf	0,w
  5193     04A6  00C5               	movwf	clcd_print@str
  5194     04A7  0A84               	incf	4,f
  5195     04A8  0800               	movf	0,w
  5196     04A9  0384               	decf	4,f
  5197     04AA  00C6               	movwf	clcd_print@str+1
  5198     04AB  30C1               	movlw	193
  5199     04AC  00C7               	movwf	clcd_print@addr
  5200     04AD  160A  118A  24CC  120A  118A  	fcall	_clcd_print
  5201     04B2                     l4280:
  5202                           
  5203                           ;helper.c: 223:     return menu_pos;
  5204     04B2  1283               	bcf	3,5	;RP0=0, select bank0
  5205     04B3  1303               	bcf	3,6	;RP1=0, select bank0
  5206     04B4  0830               	movf	menu_screen@menu_pos,w
  5207     04B5                     l387:
  5208     04B5  0008               	return
  5209     04B6                     __end_of_menu_screen:
  5210                           
  5211                           	psect	text8
  5212     092A                     __ptext8:	
  5213 ;; *************** function _log_event *****************
  5214 ;; Defined at:
  5215 ;;		line 78 in file "helper.c"
  5216 ;; Parameters:    Size  Location     Type
  5217 ;;  event           1    4[BANK0 ] PTR unsigned char 
  5218 ;;		 -> main@event(3), 
  5219 ;;  speed           1    5[BANK0 ] unsigned char 
  5220 ;; Auto vars:     Size  Location     Type
  5221 ;;  addr            1    8[BANK0 ] unsigned char 
  5222 ;; Return value:  Size  Location     Type
  5223 ;;                  1    wreg      void 
  5224 ;; Registers used:
  5225 ;;		wreg, fsr0l, fsr0h, status,2, status,0, pclath, btemp1, cstack
  5226 ;; Tracked objects:
  5227 ;;		On entry : 0/0
  5228 ;;		On exit  : 0/0
  5229 ;;		Unchanged: 0/0
  5230 ;; Data sizes:     COMMON   BANK0   BANK1   BANK3   BANK2
  5231 ;;      Params:         0       2       0       0       0
  5232 ;;      Locals:         0       1       0       0       0
  5233 ;;      Temps:          0       2       0       0       0
  5234 ;;      Totals:         0       5       0       0       0
  5235 ;;Total ram usage:        5 bytes
  5236 ;; Hardware stack levels used: 1
  5237 ;; Hardware stack levels required when called: 2
  5238 ;; This function calls:
  5239 ;;		___awdiv
  5240 ;;		___awmod
  5241 ;;		___bmul
  5242 ;;		_ext_eeprom_24c02_str_write
  5243 ;;		_get_time
  5244 ;;		_strncpy
  5245 ;; This function is called by:
  5246 ;;		_main
  5247 ;; This function uses a non-reentrant model
  5248 ;;
  5249                           
  5250     092A                     _log_event:	
  5251                           ;psect for function _log_event
  5252                           
  5253     092A                     l4102:	
  5254                           ;incstack = 0
  5255                           ; Regs used in _log_event: [wreg-fsr0h+status,2+status,0+pclath+btemp1+cstack]
  5256                           
  5257                           
  5258                           ;helper.c: 79:     unsigned char addr;;helper.c: 81:     addr = pos * 10 + 5;
  5259     092A  300A               	movlw	10
  5260     092B  00F3               	movwf	___bmul@multiplicand
  5261     092C  1283               	bcf	3,5	;RP0=0, select bank0
  5262     092D  1303               	bcf	3,6	;RP1=0, select bank0
  5263     092E  0835               	movf	_pos,w
  5264     092F  160A  118A  2293  120A  158A  	fcall	___bmul
  5265     0934  3E05               	addlw	5
  5266     0935  1283               	bcf	3,5	;RP0=0, select bank0
  5267     0936  1303               	bcf	3,6	;RP1=0, select bank0
  5268     0937  00CD               	movwf	log_event@addr
  5269                           
  5270                           ;helper.c: 84:     get_time();
  5271     0938  160A  118A  273A  120A  158A  	fcall	_get_time
  5272     093D                     l4104:
  5273                           
  5274                           ;helper.c: 85:     strncpy(log, time, 6);
  5275     093D  30AB               	movlw	(low (_log| 0))& (0+255)
  5276     093E  00F3               	movwf	strncpy@d
  5277     093F  30BD               	movlw	(low (_time| 0))& (0+255)
  5278     0940  00F4               	movwf	strncpy@s
  5279     0941  3006               	movlw	6
  5280     0942  00F5               	movwf	strncpy@n
  5281     0943  3000               	movlw	0
  5282     0944  00F6               	movwf	strncpy@n+1
  5283     0945  160A  118A  2567  120A  158A  	fcall	_strncpy
  5284     094A                     l4106:
  5285                           
  5286                           ;helper.c: 86:     strncpy(&log[6], event, 2);
  5287     094A  30B1               	movlw	(low ((_log| 0+6)))& (0+255)
  5288     094B  00F3               	movwf	strncpy@d
  5289     094C  1283               	bcf	3,5	;RP0=0, select bank0
  5290     094D  1303               	bcf	3,6	;RP1=0, select bank0
  5291     094E  0849               	movf	log_event@event,w
  5292     094F  00F4               	movwf	strncpy@s
  5293     0950  3002               	movlw	2
  5294     0951  00F5               	movwf	strncpy@n
  5295     0952  3000               	movlw	0
  5296     0953  00F6               	movwf	strncpy@n+1
  5297     0954  160A  118A  2567  120A  158A  	fcall	_strncpy
  5298                           
  5299                           ;helper.c: 89:     log[8] = speed / 10 + '0';
  5300     0959  300A               	movlw	10
  5301     095A  00F3               	movwf	___awdiv@divisor
  5302     095B  3000               	movlw	0
  5303     095C  00F4               	movwf	___awdiv@divisor+1
  5304     095D  1283               	bcf	3,5	;RP0=0, select bank0
  5305     095E  1303               	bcf	3,6	;RP1=0, select bank0
  5306     095F  084A               	movf	log_event@speed,w
  5307     0960  00CB               	movwf	??_log_event
  5308     0961  01CC               	clrf	??_log_event+1
  5309     0962  084B               	movf	??_log_event,w
  5310     0963  00F5               	movwf	___awdiv@dividend
  5311     0964  084C               	movf	??_log_event+1,w
  5312     0965  00F6               	movwf	___awdiv@dividend+1
  5313     0966  120A  158A  205F  120A  158A  	fcall	___awdiv
  5314     096B  0873               	movf	?___awdiv,w
  5315     096C  3E30               	addlw	48
  5316     096D  1683               	bsf	3,5	;RP0=1, select bank1
  5317     096E  1303               	bcf	3,6	;RP1=0, select bank1
  5318     096F  00B3               	movwf	(_log^(0+128)+8)
  5319                           
  5320                           ;helper.c: 90:     log[9] = speed % 10 + '0';
  5321     0970  300A               	movlw	10
  5322     0971  00F3               	movwf	___awmod@divisor
  5323     0972  3000               	movlw	0
  5324     0973  00F4               	movwf	___awmod@divisor+1
  5325     0974  1283               	bcf	3,5	;RP0=0, select bank0
  5326     0975  1303               	bcf	3,6	;RP1=0, select bank0
  5327     0976  084A               	movf	log_event@speed,w
  5328     0977  00CB               	movwf	??_log_event
  5329     0978  01CC               	clrf	??_log_event+1
  5330     0979  084B               	movf	??_log_event,w
  5331     097A  00F5               	movwf	___awmod@dividend
  5332     097B  084C               	movf	??_log_event+1,w
  5333     097C  00F6               	movwf	___awmod@dividend+1
  5334     097D  120A  158A  2006  120A  158A  	fcall	___awmod
  5335     0982  0873               	movf	?___awmod,w
  5336     0983  3E30               	addlw	48
  5337     0984  1683               	bsf	3,5	;RP0=1, select bank1
  5338     0985  1303               	bcf	3,6	;RP1=0, select bank1
  5339     0986  00B4               	movwf	(_log^(0+128)+9)
  5340     0987                     l4108:
  5341                           
  5342                           ;helper.c: 91:     log[10] = '\0';
  5343     0987  01B5               	clrf	(_log^(0+128)+10)
  5344     0988                     l4110:
  5345                           
  5346                           ;helper.c: 93:     ext_eeprom_24c02_str_write(addr, log);
  5347     0988  30AB               	movlw	(low (_log| 0))& (0+255)
  5348     0989  1283               	bcf	3,5	;RP0=0, select bank0
  5349     098A  1303               	bcf	3,6	;RP1=0, select bank0
  5350     098B  00C5               	movwf	ext_eeprom_24c02_str_write@str
  5351     098C  3000               	movlw	0
  5352     098D  00C6               	movwf	ext_eeprom_24c02_str_write@str+1
  5353     098E  084D               	movf	log_event@addr,w
  5354     098F  160A  118A  243B  120A  158A  	fcall	_ext_eeprom_24c02_str_write
  5355     0994                     l4112:
  5356                           
  5357                           ;helper.c: 95:     if (log_count < 9)
  5358     0994  1283               	bcf	3,5	;RP0=0, select bank0
  5359     0995  1303               	bcf	3,6	;RP1=0, select bank0
  5360     0996  0864               	movf	_log_count,w
  5361     0997  3A80               	xorlw	128
  5362     0998  3E77               	addlw	-137
  5363     0999  1803               	skipnc
  5364     099A  299C               	goto	u4031
  5365     099B  299D               	goto	u4030
  5366     099C                     u4031:
  5367     099C  299F               	goto	l349
  5368     099D                     u4030:
  5369     099D                     l4114:
  5370                           
  5371                           ;helper.c: 96:         log_count++;
  5372     099D  3001               	movlw	1
  5373     099E  07E4               	addwf	_log_count,f
  5374     099F                     l349:
  5375                           
  5376                           ;helper.c: 98:     pos++;
  5377     099F  3001               	movlw	1
  5378     09A0  07B5               	addwf	_pos,f
  5379                           
  5380                           ;helper.c: 99:     if (pos == 10)
  5381     09A1  300A               	movlw	10
  5382     09A2  0635               	xorwf	_pos,w
  5383     09A3  1D03               	btfss	3,2
  5384     09A4  29A6               	goto	u4041
  5385     09A5  29A7               	goto	u4040
  5386     09A6                     u4041:
  5387     09A6  29A8               	goto	l351
  5388     09A7                     u4040:
  5389     09A7                     l4116:
  5390                           
  5391                           ;helper.c: 100:         pos = 0;
  5392     09A7  01B5               	clrf	_pos
  5393     09A8                     l351:
  5394     09A8  0008               	return
  5395     09A9                     __end_of_log_event:
  5396                           
  5397                           	psect	text9
  5398     1567                     __ptext9:	
  5399 ;; *************** function _strncpy *****************
  5400 ;; Defined at:
  5401 ;;		line 3 in file "C:\Program Files\Microchip\xc8\v3.10\pic\sources\c99\common\strncpy.c"
  5402 ;; Parameters:    Size  Location     Type
  5403 ;;  d               1    3[COMMON] PTR unsigned char 
  5404 ;;		 -> log(11), 
  5405 ;;  s               1    4[COMMON] PTR const unsigned char 
  5406 ;;		 -> time(7), main@event(3), 
  5407 ;;  n               2    5[COMMON] unsigned int 
  5408 ;; Auto vars:     Size  Location     Type
  5409 ;;  cp              1    1[BANK0 ] PTR unsigned char 
  5410 ;;		 -> log(11), 
  5411 ;; Return value:  Size  Location     Type
  5412 ;;                  1    3[COMMON] PTR unsigned char 
  5413 ;; Registers used:
  5414 ;;		wreg, fsr0l, fsr0h, status,2, status,0
  5415 ;; Tracked objects:
  5416 ;;		On entry : 0/0
  5417 ;;		On exit  : 0/0
  5418 ;;		Unchanged: 0/0
  5419 ;; Data sizes:     COMMON   BANK0   BANK1   BANK3   BANK2
  5420 ;;      Params:         4       0       0       0       0
  5421 ;;      Locals:         0       1       0       0       0
  5422 ;;      Temps:          0       1       0       0       0
  5423 ;;      Totals:         4       2       0       0       0
  5424 ;;Total ram usage:        6 bytes
  5425 ;; Hardware stack levels used: 1
  5426 ;; Hardware stack levels required when called: 1
  5427 ;; This function calls:
  5428 ;;		Nothing
  5429 ;; This function is called by:
  5430 ;;		_log_event
  5431 ;; This function uses a non-reentrant model
  5432 ;;
  5433                           
  5434     1567                     _strncpy:	
  5435                           ;psect for function _strncpy
  5436                           
  5437     1567                     l3870:	
  5438                           ;incstack = 0
  5439                           ; Regs used in _strncpy: [wreg-fsr0h+status,2+status,0]
  5440                           
  5441     1567  0873               	movf	strncpy@d,w
  5442     1568  1283               	bcf	3,5	;RP0=0, select bank0
  5443     1569  1303               	bcf	3,6	;RP1=0, select bank0
  5444     156A  00C6               	movwf	strncpy@cp
  5445     156B  2D83               	goto	l3878
  5446     156C                     l3872:
  5447     156C  3001               	movlw	1
  5448     156D  02F5               	subwf	strncpy@n,f
  5449     156E  3000               	movlw	0
  5450     156F  1C03               	skipc
  5451     1570  03F6               	decf	strncpy@n+1,f
  5452     1571  02F6               	subwf	strncpy@n+1,f
  5453     1572                     l3874:
  5454     1572  0874               	movf	strncpy@s,w
  5455     1573  0AF4               	incf	strncpy@s,f
  5456     1574  0084               	movwf	4
  5457     1575  1383               	bcf	3,7	;select IRP bank0
  5458     1576  0800               	movf	0,w
  5459     1577  00C5               	movwf	??_strncpy
  5460     1578  0846               	movf	strncpy@cp,w
  5461     1579  0AC6               	incf	strncpy@cp,f
  5462     157A  0084               	movwf	4
  5463     157B  0845               	movf	??_strncpy,w
  5464     157C  0080               	movwf	0
  5465     157D  0800               	movf	0,w
  5466     157E  1D03               	btfss	3,2
  5467     157F  2D81               	goto	u3651
  5468     1580  2D82               	goto	u3650
  5469     1581                     u3651:
  5470     1581  2D83               	goto	l3878
  5471     1582                     u3650:
  5472     1582  2D90               	goto	l3884
  5473     1583                     l3878:
  5474     1583  0875               	movf	strncpy@n,w
  5475     1584  0476               	iorwf	strncpy@n+1,w
  5476     1585  1D03               	btfss	3,2
  5477     1586  2D88               	goto	u3661
  5478     1587  2D89               	goto	u3660
  5479     1588                     u3661:
  5480     1588  2D6C               	goto	l3872
  5481     1589                     u3660:
  5482     1589  2D90               	goto	l3884
  5483     158A                     l3880:
  5484     158A  0846               	movf	strncpy@cp,w
  5485     158B  0084               	movwf	4
  5486     158C  1383               	bcf	3,7	;select IRP bank0
  5487     158D  0180               	clrf	0
  5488     158E                     l3882:
  5489     158E  3001               	movlw	1
  5490     158F  07C6               	addwf	strncpy@cp,f
  5491     1590                     l3884:
  5492     1590  3001               	movlw	1
  5493     1591  02F5               	subwf	strncpy@n,f
  5494     1592  3000               	movlw	0
  5495     1593  1C03               	skipc
  5496     1594  03F6               	decf	strncpy@n+1,f
  5497     1595  02F6               	subwf	strncpy@n+1,f
  5498     1596  0A75               	incf	strncpy@n,w
  5499     1597  1D03               	skipz
  5500     1598  2D9D               	goto	u3671
  5501     1599  0A76               	incf	strncpy@n+1,w
  5502     159A  1D03               	btfss	3,2
  5503     159B  2D9D               	goto	u3671
  5504     159C  2D9E               	goto	u3670
  5505     159D                     u3671:
  5506     159D  2D8A               	goto	l3880
  5507     159E                     u3670:
  5508     159E                     l1170:
  5509     159E  0008               	return
  5510     159F                     __end_of_strncpy:
  5511                           
  5512                           	psect	text10
  5513     143B                     __ptext10:	
  5514 ;; *************** function _ext_eeprom_24c02_str_write *****************
  5515 ;; Defined at:
  5516 ;;		line 37 in file "eeprom.c"
  5517 ;; Parameters:    Size  Location     Type
  5518 ;;  addr            1    wreg     unsigned char 
  5519 ;;  str             2    0[BANK0 ] PTR unsigned char 
  5520 ;;		 -> log(11), STR_8(5), 
  5521 ;; Auto vars:     Size  Location     Type
  5522 ;;  addr            1    6[COMMON] unsigned char 
  5523 ;; Return value:  Size  Location     Type
  5524 ;;                  1    wreg      unsigned char 
  5525 ;; Registers used:
  5526 ;;		wreg, fsr0l, fsr0h, status,2, status,0, pclath, btemp1, cstack
  5527 ;; Tracked objects:
  5528 ;;		On entry : 0/0
  5529 ;;		On exit  : 0/0
  5530 ;;		Unchanged: 0/0
  5531 ;; Data sizes:     COMMON   BANK0   BANK1   BANK3   BANK2
  5532 ;;      Params:         0       2       0       0       0
  5533 ;;      Locals:         1       0       0       0       0
  5534 ;;      Temps:          0       0       0       0       0
  5535 ;;      Totals:         1       2       0       0       0
  5536 ;;Total ram usage:        3 bytes
  5537 ;; Hardware stack levels used: 1
  5538 ;; Hardware stack levels required when called: 1
  5539 ;; This function calls:
  5540 ;;		_ext_eeprom_24c02_byte_write
  5541 ;; This function is called by:
  5542 ;;		_main
  5543 ;;		_log_event
  5544 ;; This function uses a non-reentrant model
  5545 ;;
  5546                           
  5547     143B                     _ext_eeprom_24c02_str_write:	
  5548                           ;psect for function _ext_eeprom_24c02_str_write
  5549                           
  5550                           
  5551                           ;incstack = 0
  5552                           ; Regs used in _ext_eeprom_24c02_str_write: [wreg-fsr0h+status,2+status,0+pclath+btemp1+
      +                          cstack]
  5553                           ;ext_eeprom_24c02_str_write@addr stored from wreg
  5554     143B  00F6               	movwf	ext_eeprom_24c02_str_write@addr
  5555     143C                     l3854:
  5556                           
  5557                           ;eeprom.c: 37: unsigned char ext_eeprom_24c02_str_write(unsigned char addr, char *str);e
      +                          eprom.c: 38: {;eeprom.c: 39:     while (*str != '\0') {
  5558     143C  2C57               	goto	l3862
  5559     143D                     l3856:
  5560                           
  5561                           ;eeprom.c: 40:         ext_eeprom_24c02_byte_write(addr, *str);
  5562     143D  0846               	movf	ext_eeprom_24c02_str_write@str+1,w
  5563     143E  00FF               	movwf	btemp1
  5564     143F  0845               	movf	ext_eeprom_24c02_str_write@str,w
  5565     1440  0084               	movwf	4
  5566     1441  160A  118A  2000  160A  118A  	fcall	stringtab
  5567     1446  00F4               	movwf	ext_eeprom_24c02_byte_write@data
  5568     1447  0876               	movf	ext_eeprom_24c02_str_write@addr,w
  5569     1448  160A  118A  22F8  160A  118A  	fcall	_ext_eeprom_24c02_byte_write
  5570     144D                     l3858:
  5571                           
  5572                           ;eeprom.c: 41:         addr++;
  5573     144D  3001               	movlw	1
  5574     144E  07F6               	addwf	ext_eeprom_24c02_str_write@addr,f
  5575     144F                     l3860:
  5576                           
  5577                           ;eeprom.c: 42:         str++;
  5578     144F  3001               	movlw	1
  5579     1450  1283               	bcf	3,5	;RP0=0, select bank0
  5580     1451  1303               	bcf	3,6	;RP1=0, select bank0
  5581     1452  07C5               	addwf	ext_eeprom_24c02_str_write@str,f
  5582     1453  1803               	skipnc
  5583     1454  0AC6               	incf	ext_eeprom_24c02_str_write@str+1,f
  5584     1455  3000               	movlw	0
  5585     1456  07C6               	addwf	ext_eeprom_24c02_str_write@str+1,f
  5586     1457                     l3862:
  5587                           
  5588                           ;eeprom.c: 39:     while (*str != '\0') {
  5589     1457  1283               	bcf	3,5	;RP0=0, select bank0
  5590     1458  1303               	bcf	3,6	;RP1=0, select bank0
  5591     1459  0846               	movf	ext_eeprom_24c02_str_write@str+1,w
  5592     145A  00FF               	movwf	btemp1
  5593     145B  0845               	movf	ext_eeprom_24c02_str_write@str,w
  5594     145C  0084               	movwf	4
  5595     145D  160A  118A  2000  160A  118A  	fcall	stringtab
  5596     1462  3A00               	xorlw	0
  5597     1463  1D03               	skipz
  5598     1464  2C66               	goto	u3631
  5599     1465  2C67               	goto	u3630
  5600     1466                     u3631:
  5601     1466  2C3D               	goto	l3856
  5602     1467                     u3630:
  5603     1467                     l529:
  5604     1467  0008               	return
  5605     1468                     __end_of_ext_eeprom_24c02_str_write:
  5606                           
  5607                           	psect	text11
  5608     04B6                     __ptext11:	
  5609 ;; *************** function _init_config *****************
  5610 ;; Defined at:
  5611 ;;		line 48 in file "main.c"
  5612 ;; Parameters:    Size  Location     Type
  5613 ;;		None
  5614 ;; Auto vars:     Size  Location     Type
  5615 ;;		None
  5616 ;; Return value:  Size  Location     Type
  5617 ;;                  1    wreg      void 
  5618 ;; Registers used:
  5619 ;;		wreg, fsr0l, fsr0h, status,2, status,0, pclath, btemp1, cstack
  5620 ;; Tracked objects:
  5621 ;;		On entry : 0/0
  5622 ;;		On exit  : 0/0
  5623 ;;		Unchanged: 0/0
  5624 ;; Data sizes:     COMMON   BANK0   BANK1   BANK3   BANK2
  5625 ;;      Params:         0       0       0       0       0
  5626 ;;      Locals:         0       0       0       0       0
  5627 ;;      Temps:          0       0       0       0       0
  5628 ;;      Totals:         0       0       0       0       0
  5629 ;;Total ram usage:        0 bytes
  5630 ;; Hardware stack levels used: 1
  5631 ;; Hardware stack levels required when called: 4
  5632 ;; This function calls:
  5633 ;;		_init_adc
  5634 ;;		_init_clcd
  5635 ;;		_init_digital_keypad
  5636 ;;		_init_ds1307
  5637 ;;		_init_i2c
  5638 ;;		_init_timer2
  5639 ;;		_init_uart
  5640 ;;		_puts
  5641 ;; This function is called by:
  5642 ;;		_main
  5643 ;; This function uses a non-reentrant model
  5644 ;;
  5645                           
  5646     04B6                     _init_config:	
  5647                           ;psect for function _init_config
  5648                           
  5649     04B6                     l3982:	
  5650                           ;incstack = 0
  5651                           ; Regs used in _init_config: [wreg-fsr0h+status,2+status,0+pclath+btemp1+cstack]
  5652                           
  5653                           
  5654                           ;main.c: 49: 
  5655     04B6  3000               	movlw	0
  5656     04B7  1283               	bcf	3,5	;RP0=0, select bank0
  5657     04B8  1303               	bcf	3,6	;RP1=0, select bank0
  5658     04B9  00D5               	movwf	init_i2c@baud+3
  5659     04BA  3001               	movlw	1
  5660     04BB  00D4               	movwf	init_i2c@baud+2
  5661     04BC  3086               	movlw	134
  5662     04BD  00D3               	movwf	init_i2c@baud+1
  5663     04BE  30A0               	movlw	160
  5664     04BF  00D2               	movwf	init_i2c@baud
  5665     04C0  160A  118A  2533  120A  118A  	fcall	_init_i2c
  5666                           
  5667                           ;main.c: 50:         if (key == 0x3E) {
  5668     04C5  160A  118A  22B9  120A  118A  	fcall	_init_ds1307
  5669                           
  5670                           ;main.c: 51:             strcpy(event, " C");
  5671     04CA  120A  158A  2000  120A  118A  	fcall	_init_digital_keypad
  5672                           
  5673                           ;main.c: 52: 
  5674     04CF  160A  118A  2269  120A  118A  	fcall	_init_clcd
  5675     04D4                     l3984:
  5676                           
  5677                           ;main.c: 53:             log_event(event, speed);
  5678     04D4  120A  118A  27F9  120A  118A  	fcall	_init_adc
  5679     04D9                     l3986:
  5680                           
  5681                           ;main.c: 54:         } else if (key == 0x3D) {
  5682     04D9  160A  118A  2249  120A  118A  	fcall	_init_timer2
  5683                           
  5684                           ;main.c: 55:             if (gr < 5)
  5685     04DE  3000               	movlw	0
  5686     04DF  1283               	bcf	3,5	;RP0=0, select bank0
  5687     04E0  1303               	bcf	3,6	;RP1=0, select bank0
  5688     04E1  00D5               	movwf	init_uart@baud+3
  5689     04E2  3000               	movlw	0
  5690     04E3  00D4               	movwf	init_uart@baud+2
  5691     04E4  3025               	movlw	37
  5692     04E5  00D3               	movwf	init_uart@baud+1
  5693     04E6  3080               	movlw	128
  5694     04E7  00D2               	movwf	init_uart@baud
  5695     04E8  160A  118A  249A  120A  118A  	fcall	_init_uart
  5696     04ED                     l3988:
  5697                           
  5698                           ;main.c: 57:             strcpy(event, gear[gr]);
  5699     04ED  301E               	movlw	low (STR_7| (0+32768))
  5700     04EE  1283               	bcf	3,5	;RP0=0, select bank0
  5701     04EF  1303               	bcf	3,6	;RP1=0, select bank0
  5702     04F0  00C8               	movwf	puts@s
  5703     04F1  3086               	movlw	high (STR_7| (0+32768))
  5704     04F2  00C9               	movwf	puts@s+1
  5705     04F3  160A  118A  23BD  120A  118A  	fcall	_puts
  5706     04F8                     l3990:
  5707                           
  5708                           ;main.c: 59:         } else if (key == 0x3B) {
  5709     04F8  170B               	bsf	11,6	;volatile
  5710     04F9                     l3992:
  5711                           
  5712                           ;main.c: 60:             if (gr > 0)
  5713     04F9  178B               	bsf	11,7	;volatile
  5714     04FA                     l179:
  5715     04FA  0008               	return
  5716     04FB                     __end_of_init_config:
  5717                           
  5718                           	psect	text12
  5719     13BD                     __ptext12:	
  5720 ;; *************** function _puts *****************
  5721 ;; Defined at:
  5722 ;;		line 51 in file "uart.c"
  5723 ;; Parameters:    Size  Location     Type
  5724 ;;  s               2    3[BANK0 ] PTR const unsigned char 
  5725 ;;		 -> STR_7(16), 
  5726 ;; Auto vars:     Size  Location     Type
  5727 ;;		None
  5728 ;; Return value:  Size  Location     Type
  5729 ;;                  1    wreg      void 
  5730 ;; Registers used:
  5731 ;;		wreg, fsr0l, fsr0h, status,2, status,0, pclath, btemp1, cstack
  5732 ;; Tracked objects:
  5733 ;;		On entry : 0/0
  5734 ;;		On exit  : 0/0
  5735 ;;		Unchanged: 0/0
  5736 ;; Data sizes:     COMMON   BANK0   BANK1   BANK3   BANK2
  5737 ;;      Params:         0       2       0       0       0
  5738 ;;      Locals:         0       0       0       0       0
  5739 ;;      Temps:          0       0       0       0       0
  5740 ;;      Totals:         0       2       0       0       0
  5741 ;;Total ram usage:        2 bytes
  5742 ;; Hardware stack levels used: 1
  5743 ;; Hardware stack levels required when called: 2
  5744 ;; This function calls:
  5745 ;;		_putchar
  5746 ;; This function is called by:
  5747 ;;		_init_config
  5748 ;; This function uses a non-reentrant model
  5749 ;;
  5750                           
  5751     13BD                     _puts:	
  5752                           ;psect for function _puts
  5753                           
  5754     13BD                     l3846:	
  5755                           ;incstack = 0
  5756                           ; Regs used in _puts: [wreg-fsr0h+status,2+status,0+pclath+btemp1+cstack]
  5757                           
  5758     13BD  2BD4               	goto	l3852
  5759     13BE                     l3848:
  5760     13BE  0849               	movf	puts@s+1,w
  5761     13BF  00FF               	movwf	btemp1
  5762     13C0  0848               	movf	puts@s,w
  5763     13C1  0084               	movwf	4
  5764     13C2  160A  118A  2000  160A  118A  	fcall	stringtab
  5765     13C7  160A  118A  225E  160A  118A  	fcall	_putchar
  5766     13CC                     l3850:
  5767     13CC  3001               	movlw	1
  5768     13CD  1283               	bcf	3,5	;RP0=0, select bank0
  5769     13CE  1303               	bcf	3,6	;RP1=0, select bank0
  5770     13CF  07C8               	addwf	puts@s,f
  5771     13D0  1803               	skipnc
  5772     13D1  0AC9               	incf	puts@s+1,f
  5773     13D2  3000               	movlw	0
  5774     13D3  07C9               	addwf	puts@s+1,f
  5775     13D4                     l3852:
  5776     13D4  1283               	bcf	3,5	;RP0=0, select bank0
  5777     13D5  1303               	bcf	3,6	;RP1=0, select bank0
  5778     13D6  0849               	movf	puts@s+1,w
  5779     13D7  00FF               	movwf	btemp1
  5780     13D8  0848               	movf	puts@s,w
  5781     13D9  0084               	movwf	4
  5782     13DA  160A  118A  2000  160A  118A  	fcall	stringtab
  5783     13DF  3A00               	xorlw	0
  5784     13E0  1D03               	skipz
  5785     13E1  2BE3               	goto	u3621
  5786     13E2  2BE4               	goto	u3620
  5787     13E3                     u3621:
  5788     13E3  2BBE               	goto	l3848
  5789     13E4                     u3620:
  5790     13E4                     l603:
  5791     13E4  0008               	return
  5792     13E5                     __end_of_puts:
  5793                           
  5794                           	psect	text13
  5795     149A                     __ptext13:	
  5796 ;; *************** function _init_uart *****************
  5797 ;; Defined at:
  5798 ;;		line 14 in file "uart.c"
  5799 ;; Parameters:    Size  Location     Type
  5800 ;;  baud            4   13[BANK0 ] unsigned long 
  5801 ;; Auto vars:     Size  Location     Type
  5802 ;;		None
  5803 ;; Return value:  Size  Location     Type
  5804 ;;                  1    wreg      void 
  5805 ;; Registers used:
  5806 ;;		wreg, status,2, status,0, pclath, cstack
  5807 ;; Tracked objects:
  5808 ;;		On entry : 0/0
  5809 ;;		On exit  : 0/0
  5810 ;;		Unchanged: 0/0
  5811 ;; Data sizes:     COMMON   BANK0   BANK1   BANK3   BANK2
  5812 ;;      Params:         0       4       0       0       0
  5813 ;;      Locals:         0       0       0       0       0
  5814 ;;      Temps:          0       4       0       0       0
  5815 ;;      Totals:         0       8       0       0       0
  5816 ;;Total ram usage:        8 bytes
  5817 ;; Hardware stack levels used: 1
  5818 ;; Hardware stack levels required when called: 2
  5819 ;; This function calls:
  5820 ;;		___lldiv
  5821 ;; This function is called by:
  5822 ;;		_init_config
  5823 ;; This function uses a non-reentrant model
  5824 ;;
  5825                           
  5826     149A                     _init_uart:	
  5827                           ;psect for function _init_uart
  5828                           
  5829     149A                     l3842:	
  5830                           ;incstack = 0
  5831                           ; Regs used in _init_uart: [wreg+status,2+status,0+pclath+cstack]
  5832                           
  5833                           
  5834                           ;uart.c: 17: 
  5835     149A  1283               	bcf	3,5	;RP0=0, select bank0
  5836     149B  1303               	bcf	3,6	;RP1=0, select bank0
  5837     149C  1798               	bsf	24,7	;volatile
  5838                           
  5839                           ;uart.c: 20: 
  5840     149D  1618               	bsf	24,4	;volatile
  5841     149E                     l3844:
  5842                           
  5843                           ;uart.c: 23: }
  5844     149E  0852               	movf	init_uart@baud,w
  5845     149F  00D6               	movwf	??_init_uart
  5846     14A0  0853               	movf	init_uart@baud+1,w
  5847     14A1  00D7               	movwf	??_init_uart+1
  5848     14A2  0854               	movf	init_uart@baud+2,w
  5849     14A3  00D8               	movwf	??_init_uart+2
  5850     14A4  0855               	movf	init_uart@baud+3,w
  5851     14A5  00D9               	movwf	??_init_uart+3
  5852     14A6  3004               	movlw	4
  5853     14A7                     u3615:
  5854     14A7  1003               	clrc
  5855     14A8  0DD6               	rlf	??_init_uart,f
  5856     14A9  0DD7               	rlf	??_init_uart+1,f
  5857     14AA  0DD8               	rlf	??_init_uart+2,f
  5858     14AB  0DD9               	rlf	??_init_uart+3,f
  5859     14AC                     u3610:
  5860     14AC  3EFF               	addlw	-1
  5861     14AD  1D03               	skipz
  5862     14AE  2CA7               	goto	u3615
  5863     14AF  0859               	movf	??_init_uart+3,w
  5864     14B0  00C8               	movwf	___lldiv@divisor+3
  5865     14B1  0858               	movf	??_init_uart+2,w
  5866     14B2  00C7               	movwf	___lldiv@divisor+2
  5867     14B3  0857               	movf	??_init_uart+1,w
  5868     14B4  00C6               	movwf	___lldiv@divisor+1
  5869     14B5  0856               	movf	??_init_uart,w
  5870     14B6  00C5               	movwf	___lldiv@divisor
  5871     14B7  3001               	movlw	1
  5872     14B8  00CC               	movwf	___lldiv@dividend+3
  5873     14B9  3031               	movlw	49
  5874     14BA  00CB               	movwf	___lldiv@dividend+2
  5875     14BB  302D               	movlw	45
  5876     14BC  00CA               	movwf	___lldiv@dividend+1
  5877     14BD  3000               	movlw	0
  5878     14BE  00C9               	movwf	___lldiv@dividend
  5879     14BF  120A  158A  20C4  160A  118A  	fcall	___lldiv
  5880     14C4  1283               	bcf	3,5	;RP0=0, select bank0
  5881     14C5  1303               	bcf	3,6	;RP1=0, select bank0
  5882     14C6  0845               	movf	?___lldiv,w
  5883     14C7  3EFF               	addlw	255
  5884     14C8  1683               	bsf	3,5	;RP0=1, select bank1
  5885     14C9  1303               	bcf	3,6	;RP1=0, select bank1
  5886     14CA  0099               	movwf	25	;volatile
  5887     14CB                     l585:
  5888     14CB  0008               	return
  5889     14CC                     __end_of_init_uart:
  5890                           
  5891                           	psect	text14
  5892     1249                     __ptext14:	
  5893 ;; *************** function _init_timer2 *****************
  5894 ;; Defined at:
  5895 ;;		line 11 in file "timers.c"
  5896 ;; Parameters:    Size  Location     Type
  5897 ;;		None
  5898 ;; Auto vars:     Size  Location     Type
  5899 ;;		None
  5900 ;; Return value:  Size  Location     Type
  5901 ;;                  1    wreg      void 
  5902 ;; Registers used:
  5903 ;;		None
  5904 ;; Tracked objects:
  5905 ;;		On entry : 0/0
  5906 ;;		On exit  : 0/0
  5907 ;;		Unchanged: 0/0
  5908 ;; Data sizes:     COMMON   BANK0   BANK1   BANK3   BANK2
  5909 ;;      Params:         0       0       0       0       0
  5910 ;;      Locals:         0       0       0       0       0
  5911 ;;      Temps:          0       0       0       0       0
  5912 ;;      Totals:         0       0       0       0       0
  5913 ;;Total ram usage:        0 bytes
  5914 ;; Hardware stack levels used: 1
  5915 ;; Hardware stack levels required when called: 1
  5916 ;; This function calls:
  5917 ;;		Nothing
  5918 ;; This function is called by:
  5919 ;;		_init_config
  5920 ;; This function uses a non-reentrant model
  5921 ;;
  5922                           
  5923     1249                     _init_timer2:	
  5924                           ;psect for function _init_timer2
  5925                           
  5926     1249                     l3840:	
  5927                           ;incstack = 0
  5928                           ; Regs used in _init_timer2: []
  5929                           
  5930                           
  5931                           ;timers.c: 14:     PR2 = 250;
  5932     1249  30FA               	movlw	250
  5933     124A  1683               	bsf	3,5	;RP0=1, select bank1
  5934     124B  1303               	bcf	3,6	;RP1=0, select bank1
  5935     124C  0092               	movwf	18	;volatile
  5936                           
  5937                           ;timers.c: 17:     TMR2IE = 1;
  5938     124D  148C               	bsf	12,1	;volatile
  5939                           
  5940                           ;timers.c: 20:     TMR2ON = 0;
  5941     124E  1283               	bcf	3,5	;RP0=0, select bank0
  5942     124F  1303               	bcf	3,6	;RP1=0, select bank0
  5943     1250  1112               	bcf	18,2	;volatile
  5944                           
  5945                           ;timers.c: 22:     TMR2IF = 0;
  5946     1251  108C               	bcf	12,1	;volatile
  5947     1252                     l540:
  5948     1252  0008               	return
  5949     1253                     __end_of_init_timer2:
  5950                           
  5951                           	psect	text15
  5952     1533                     __ptext15:	
  5953 ;; *************** function _init_i2c *****************
  5954 ;; Defined at:
  5955 ;;		line 14 in file "i2c.c"
  5956 ;; Parameters:    Size  Location     Type
  5957 ;;  baud            4   13[BANK0 ] unsigned long 
  5958 ;; Auto vars:     Size  Location     Type
  5959 ;;		None
  5960 ;; Return value:  Size  Location     Type
  5961 ;;                  1    wreg      void 
  5962 ;; Registers used:
  5963 ;;		wreg, status,2, status,0, pclath, cstack
  5964 ;; Tracked objects:
  5965 ;;		On entry : 0/0
  5966 ;;		On exit  : 0/0
  5967 ;;		Unchanged: 0/0
  5968 ;; Data sizes:     COMMON   BANK0   BANK1   BANK3   BANK2
  5969 ;;      Params:         0       4       0       0       0
  5970 ;;      Locals:         0       0       0       0       0
  5971 ;;      Temps:          0       4       0       0       0
  5972 ;;      Totals:         0       8       0       0       0
  5973 ;;Total ram usage:        8 bytes
  5974 ;; Hardware stack levels used: 1
  5975 ;; Hardware stack levels required when called: 2
  5976 ;; This function calls:
  5977 ;;		___lldiv
  5978 ;; This function is called by:
  5979 ;;		_init_config
  5980 ;; This function uses a non-reentrant model
  5981 ;;
  5982                           
  5983     1533                     _init_i2c:	
  5984                           ;psect for function _init_i2c
  5985                           
  5986     1533                     l3830:	
  5987                           ;incstack = 0
  5988                           ; Regs used in _init_i2c: [wreg+status,2+status,0+pclath+cstack]
  5989                           
  5990                           
  5991                           ;i2c.c: 17: }
  5992     1533  1283               	bcf	3,5	;RP0=0, select bank0
  5993     1534  1303               	bcf	3,6	;RP1=0, select bank0
  5994     1535  1594               	bsf	20,3	;volatile
  5995     1536                     l3832:
  5996                           
  5997                           ;i2c.c: 20:     i2c_wait_for_idle();
  5998     1536  0852               	movf	init_i2c@baud,w
  5999     1537  00D6               	movwf	??_init_i2c
  6000     1538  0853               	movf	init_i2c@baud+1,w
  6001     1539  00D7               	movwf	??_init_i2c+1
  6002     153A  0854               	movf	init_i2c@baud+2,w
  6003     153B  00D8               	movwf	??_init_i2c+2
  6004     153C  0855               	movf	init_i2c@baud+3,w
  6005     153D  00D9               	movwf	??_init_i2c+3
  6006     153E  3002               	movlw	2
  6007     153F                     u3605:
  6008     153F  1003               	clrc
  6009     1540  0DD6               	rlf	??_init_i2c,f
  6010     1541  0DD7               	rlf	??_init_i2c+1,f
  6011     1542  0DD8               	rlf	??_init_i2c+2,f
  6012     1543  0DD9               	rlf	??_init_i2c+3,f
  6013     1544                     u3600:
  6014     1544  3EFF               	addlw	-1
  6015     1545  1D03               	skipz
  6016     1546  2D3F               	goto	u3605
  6017     1547  0859               	movf	??_init_i2c+3,w
  6018     1548  00C8               	movwf	___lldiv@divisor+3
  6019     1549  0858               	movf	??_init_i2c+2,w
  6020     154A  00C7               	movwf	___lldiv@divisor+2
  6021     154B  0857               	movf	??_init_i2c+1,w
  6022     154C  00C6               	movwf	___lldiv@divisor+1
  6023     154D  0856               	movf	??_init_i2c,w
  6024     154E  00C5               	movwf	___lldiv@divisor
  6025     154F  3001               	movlw	1
  6026     1550  00CC               	movwf	___lldiv@dividend+3
  6027     1551  3031               	movlw	49
  6028     1552  00CB               	movwf	___lldiv@dividend+2
  6029     1553  302D               	movlw	45
  6030     1554  00CA               	movwf	___lldiv@dividend+1
  6031     1555  3000               	movlw	0
  6032     1556  00C9               	movwf	___lldiv@dividend
  6033     1557  120A  158A  20C4  160A  118A  	fcall	___lldiv
  6034     155C  1283               	bcf	3,5	;RP0=0, select bank0
  6035     155D  1303               	bcf	3,6	;RP1=0, select bank0
  6036     155E  0845               	movf	?___lldiv,w
  6037     155F  3EFF               	addlw	255
  6038     1560  1683               	bsf	3,5	;RP0=1, select bank1
  6039     1561  1303               	bcf	3,6	;RP1=0, select bank1
  6040     1562  0093               	movwf	19	;volatile
  6041     1563                     l3834:
  6042                           
  6043                           ;i2c.c: 23: 
  6044     1563  1283               	bcf	3,5	;RP0=0, select bank0
  6045     1564  1303               	bcf	3,6	;RP1=0, select bank0
  6046     1565  1694               	bsf	20,5	;volatile
  6047     1566                     l87:
  6048     1566  0008               	return
  6049     1567                     __end_of_init_i2c:
  6050                           
  6051                           	psect	text16
  6052     08C4                     __ptext16:	
  6053 ;; *************** function ___lldiv *****************
  6054 ;; Defined at:
  6055 ;;		line 5 in file "C:\Program Files\Microchip\xc8\v3.10\pic\sources\c99\common\__lldiv.c"
  6056 ;; Parameters:    Size  Location     Type
  6057 ;;  divisor         4    0[BANK0 ] unsigned long 
  6058 ;;  dividend        4    4[BANK0 ] unsigned long 
  6059 ;; Auto vars:     Size  Location     Type
  6060 ;;  quotient        4    8[BANK0 ] unsigned long 
  6061 ;;  counter         1   12[BANK0 ] unsigned char 
  6062 ;; Return value:  Size  Location     Type
  6063 ;;                  4    0[BANK0 ] unsigned long 
  6064 ;; Registers used:
  6065 ;;		wreg, status,2, status,0
  6066 ;; Tracked objects:
  6067 ;;		On entry : 0/0
  6068 ;;		On exit  : 0/0
  6069 ;;		Unchanged: 0/0
  6070 ;; Data sizes:     COMMON   BANK0   BANK1   BANK3   BANK2
  6071 ;;      Params:         0       8       0       0       0
  6072 ;;      Locals:         0       5       0       0       0
  6073 ;;      Temps:          1       0       0       0       0
  6074 ;;      Totals:         1      13       0       0       0
  6075 ;;Total ram usage:       14 bytes
  6076 ;; Hardware stack levels used: 1
  6077 ;; Hardware stack levels required when called: 1
  6078 ;; This function calls:
  6079 ;;		Nothing
  6080 ;; This function is called by:
  6081 ;;		_init_i2c
  6082 ;;		_init_uart
  6083 ;; This function uses a non-reentrant model
  6084 ;;
  6085                           
  6086     08C4                     ___lldiv:	
  6087                           ;psect for function ___lldiv
  6088                           
  6089     08C4                     l3742:	
  6090                           ;incstack = 0
  6091                           ; Regs used in ___lldiv: [wreg+status,2+status,0]
  6092                           
  6093     08C4  3000               	movlw	0
  6094     08C5  1283               	bcf	3,5	;RP0=0, select bank0
  6095     08C6  1303               	bcf	3,6	;RP1=0, select bank0
  6096     08C7  00D0               	movwf	___lldiv@quotient+3
  6097     08C8  3000               	movlw	0
  6098     08C9  00CF               	movwf	___lldiv@quotient+2
  6099     08CA  3000               	movlw	0
  6100     08CB  00CE               	movwf	___lldiv@quotient+1
  6101     08CC  3000               	movlw	0
  6102     08CD  00CD               	movwf	___lldiv@quotient
  6103     08CE  0848               	movf	___lldiv@divisor+3,w
  6104     08CF  0447               	iorwf	___lldiv@divisor+2,w
  6105     08D0  0446               	iorwf	___lldiv@divisor+1,w
  6106     08D1  0445               	iorwf	___lldiv@divisor,w
  6107     08D2  1903               	skipnz
  6108     08D3  28D5               	goto	u3431
  6109     08D4  28D6               	goto	u3430
  6110     08D5                     u3431:
  6111     08D5  2921               	goto	l3762
  6112     08D6                     u3430:
  6113     08D6                     l3744:
  6114     08D6  3001               	movlw	1
  6115     08D7  00D1               	movwf	___lldiv@counter
  6116     08D8  28E4               	goto	l3748
  6117     08D9                     l3746:
  6118     08D9  3001               	movlw	1
  6119     08DA  00F3               	movwf	??___lldiv
  6120     08DB                     u3445:
  6121     08DB  1003               	clrc
  6122     08DC  0DC5               	rlf	___lldiv@divisor,f
  6123     08DD  0DC6               	rlf	___lldiv@divisor+1,f
  6124     08DE  0DC7               	rlf	___lldiv@divisor+2,f
  6125     08DF  0DC8               	rlf	___lldiv@divisor+3,f
  6126     08E0  0BF3               	decfsz	??___lldiv,f
  6127     08E1  28DB               	goto	u3445
  6128     08E2  3001               	movlw	1
  6129     08E3  07D1               	addwf	___lldiv@counter,f
  6130     08E4                     l3748:
  6131     08E4  1FC8               	btfss	___lldiv@divisor+3,7
  6132     08E5  28E7               	goto	u3451
  6133     08E6  28E8               	goto	u3450
  6134     08E7                     u3451:
  6135     08E7  28D9               	goto	l3746
  6136     08E8                     u3450:
  6137     08E8                     l3750:
  6138     08E8  3001               	movlw	1
  6139     08E9  00F3               	movwf	??___lldiv
  6140     08EA                     u3465:
  6141     08EA  1003               	clrc
  6142     08EB  0DCD               	rlf	___lldiv@quotient,f
  6143     08EC  0DCE               	rlf	___lldiv@quotient+1,f
  6144     08ED  0DCF               	rlf	___lldiv@quotient+2,f
  6145     08EE  0DD0               	rlf	___lldiv@quotient+3,f
  6146     08EF  0BF3               	decfsz	??___lldiv,f
  6147     08F0  28EA               	goto	u3465
  6148     08F1                     l3752:
  6149     08F1  0848               	movf	___lldiv@divisor+3,w
  6150     08F2  024C               	subwf	___lldiv@dividend+3,w
  6151     08F3  1D03               	skipz
  6152     08F4  28FF               	goto	u3475
  6153     08F5  0847               	movf	___lldiv@divisor+2,w
  6154     08F6  024B               	subwf	___lldiv@dividend+2,w
  6155     08F7  1D03               	skipz
  6156     08F8  28FF               	goto	u3475
  6157     08F9  0846               	movf	___lldiv@divisor+1,w
  6158     08FA  024A               	subwf	___lldiv@dividend+1,w
  6159     08FB  1D03               	skipz
  6160     08FC  28FF               	goto	u3475
  6161     08FD  0845               	movf	___lldiv@divisor,w
  6162     08FE  0249               	subwf	___lldiv@dividend,w
  6163     08FF                     u3475:
  6164     08FF  1C03               	skipc
  6165     0900  2902               	goto	u3471
  6166     0901  2903               	goto	u3470
  6167     0902                     u3471:
  6168     0902  2912               	goto	l3758
  6169     0903                     u3470:
  6170     0903                     l3754:
  6171     0903  0845               	movf	___lldiv@divisor,w
  6172     0904  02C9               	subwf	___lldiv@dividend,f
  6173     0905  0846               	movf	___lldiv@divisor+1,w
  6174     0906  1C03               	skipc
  6175     0907  0F46               	incfsz	___lldiv@divisor+1,w
  6176     0908  02CA               	subwf	___lldiv@dividend+1,f
  6177     0909  0847               	movf	___lldiv@divisor+2,w
  6178     090A  1C03               	skipc
  6179     090B  0F47               	incfsz	___lldiv@divisor+2,w
  6180     090C  02CB               	subwf	___lldiv@dividend+2,f
  6181     090D  0848               	movf	___lldiv@divisor+3,w
  6182     090E  1C03               	skipc
  6183     090F  0F48               	incfsz	___lldiv@divisor+3,w
  6184     0910  02CC               	subwf	___lldiv@dividend+3,f
  6185     0911                     l3756:
  6186     0911  144D               	bsf	___lldiv@quotient,0
  6187     0912                     l3758:
  6188     0912  3001               	movlw	1
  6189     0913                     u3485:
  6190     0913  1003               	clrc
  6191     0914  0CC8               	rrf	___lldiv@divisor+3,f
  6192     0915  0CC7               	rrf	___lldiv@divisor+2,f
  6193     0916  0CC6               	rrf	___lldiv@divisor+1,f
  6194     0917  0CC5               	rrf	___lldiv@divisor,f
  6195     0918  3EFF               	addlw	-1
  6196     0919  1D03               	skipz
  6197     091A  2913               	goto	u3485
  6198     091B                     l3760:
  6199     091B  3001               	movlw	1
  6200     091C  02D1               	subwf	___lldiv@counter,f
  6201     091D  1D03               	btfss	3,2
  6202     091E  2920               	goto	u3491
  6203     091F  2921               	goto	u3490
  6204     0920                     u3491:
  6205     0920  28E8               	goto	l3750
  6206     0921                     u3490:
  6207     0921                     l3762:
  6208     0921  0850               	movf	___lldiv@quotient+3,w
  6209     0922  00C8               	movwf	?___lldiv+3
  6210     0923  084F               	movf	___lldiv@quotient+2,w
  6211     0924  00C7               	movwf	?___lldiv+2
  6212     0925  084E               	movf	___lldiv@quotient+1,w
  6213     0926  00C6               	movwf	?___lldiv+1
  6214     0927  084D               	movf	___lldiv@quotient,w
  6215     0928  00C5               	movwf	?___lldiv
  6216     0929                     l725:
  6217     0929  0008               	return
  6218     092A                     __end_of___lldiv:
  6219                           
  6220                           	psect	text17
  6221     12B9                     __ptext17:	
  6222 ;; *************** function _init_ds1307 *****************
  6223 ;; Defined at:
  6224 ;;		line 14 in file "ds1307.c"
  6225 ;; Parameters:    Size  Location     Type
  6226 ;;		None
  6227 ;; Auto vars:     Size  Location     Type
  6228 ;;  dummy           1    6[BANK0 ] unsigned char 
  6229 ;; Return value:  Size  Location     Type
  6230 ;;                  1    wreg      void 
  6231 ;; Registers used:
  6232 ;;		wreg, status,2, status,0, pclath, cstack
  6233 ;; Tracked objects:
  6234 ;;		On entry : 0/0
  6235 ;;		On exit  : 0/0
  6236 ;;		Unchanged: 0/0
  6237 ;; Data sizes:     COMMON   BANK0   BANK1   BANK3   BANK2
  6238 ;;      Params:         0       0       0       0       0
  6239 ;;      Locals:         0       1       0       0       0
  6240 ;;      Temps:          0       0       0       0       0
  6241 ;;      Totals:         0       1       0       0       0
  6242 ;;Total ram usage:        1 bytes
  6243 ;; Hardware stack levels used: 1
  6244 ;; Hardware stack levels required when called: 3
  6245 ;; This function calls:
  6246 ;;		_read_ds1307
  6247 ;;		_write_ds1307
  6248 ;; This function is called by:
  6249 ;;		_init_config
  6250 ;; This function uses a non-reentrant model
  6251 ;;
  6252                           
  6253     12B9                     _init_ds1307:	
  6254                           ;psect for function _init_ds1307
  6255                           
  6256     12B9                     l3824:	
  6257                           ;incstack = 0
  6258                           ; Regs used in _init_ds1307: [wreg+status,2+status,0+pclath+cstack]
  6259                           
  6260                           
  6261                           ;ds1307.c: 15:     i2c_write(0b11010001);;ds1307.c: 17:     i2c_stop();
  6262     12B9  3000               	movlw	0
  6263     12BA  160A  118A  2410  160A  118A  	fcall	_read_ds1307
  6264     12BF  1283               	bcf	3,5	;RP0=0, select bank0
  6265     12C0  1303               	bcf	3,6	;RP1=0, select bank0
  6266     12C1  00CB               	movwf	init_ds1307@dummy
  6267     12C2                     l3826:
  6268                           
  6269                           ;ds1307.c: 18: 
  6270     12C2  307F               	movlw	127
  6271     12C3  05CB               	andwf	init_ds1307@dummy,f
  6272     12C4                     l3828:
  6273                           
  6274                           ;ds1307.c: 19:     return data;
  6275     12C4  084B               	movf	init_ds1307@dummy,w
  6276     12C5  00C9               	movwf	write_ds1307@data
  6277     12C6  3000               	movlw	0
  6278     12C7  160A  118A  2399  160A  118A  	fcall	_write_ds1307
  6279     12CC                     l52:
  6280     12CC  0008               	return
  6281     12CD                     __end_of_init_ds1307:
  6282                           
  6283                           	psect	text18
  6284     1399                     __ptext18:	
  6285 ;; *************** function _write_ds1307 *****************
  6286 ;; Defined at:
  6287 ;;		line 36 in file "ds1307.c"
  6288 ;; Parameters:    Size  Location     Type
  6289 ;;  addr            1    wreg     unsigned char 
  6290 ;;  data            1    4[BANK0 ] unsigned char 
  6291 ;; Auto vars:     Size  Location     Type
  6292 ;;  addr            1    5[BANK0 ] unsigned char 
  6293 ;; Return value:  Size  Location     Type
  6294 ;;                  1    wreg      void 
  6295 ;; Registers used:
  6296 ;;		wreg, status,2, status,0, pclath, cstack
  6297 ;; Tracked objects:
  6298 ;;		On entry : 0/0
  6299 ;;		On exit  : 0/0
  6300 ;;		Unchanged: 0/0
  6301 ;; Data sizes:     COMMON   BANK0   BANK1   BANK3   BANK2
  6302 ;;      Params:         0       1       0       0       0
  6303 ;;      Locals:         0       1       0       0       0
  6304 ;;      Temps:          0       0       0       0       0
  6305 ;;      Totals:         0       2       0       0       0
  6306 ;;Total ram usage:        2 bytes
  6307 ;; Hardware stack levels used: 1
  6308 ;; Hardware stack levels required when called: 1
  6309 ;; This function calls:
  6310 ;;		_i2c_start
  6311 ;;		_i2c_stop
  6312 ;;		_i2c_write
  6313 ;; This function is called by:
  6314 ;;		_init_ds1307
  6315 ;;		_main
  6316 ;; This function uses a non-reentrant model
  6317 ;;
  6318                           
  6319     1399                     _write_ds1307:	
  6320                           ;psect for function _write_ds1307
  6321                           
  6322                           
  6323                           ;incstack = 0
  6324                           ; Regs used in _write_ds1307: [wreg+status,2+status,0+pclath+cstack]
  6325                           ;write_ds1307@addr stored from wreg
  6326     1399  1283               	bcf	3,5	;RP0=0, select bank0
  6327     139A  1303               	bcf	3,6	;RP1=0, select bank0
  6328     139B  00CA               	movwf	write_ds1307@addr
  6329     139C                     l3704:
  6330     139C  160A  118A  222E  160A  118A  	fcall	_i2c_start
  6331     13A1  30D0               	movlw	208
  6332     13A2  160A  118A  2253  160A  118A  	fcall	_i2c_write
  6333     13A7  1283               	bcf	3,5	;RP0=0, select bank0
  6334     13A8  1303               	bcf	3,6	;RP1=0, select bank0
  6335     13A9  084A               	movf	write_ds1307@addr,w
  6336     13AA  160A  118A  2253  160A  118A  	fcall	_i2c_write
  6337     13AF  1283               	bcf	3,5	;RP0=0, select bank0
  6338     13B0  1303               	bcf	3,6	;RP1=0, select bank0
  6339     13B1  0849               	movf	write_ds1307@data,w
  6340     13B2  160A  118A  2253  160A  118A  	fcall	_i2c_write
  6341     13B7  160A  118A  2237  160A  118A  	fcall	_i2c_stop
  6342     13BC                     l58:
  6343     13BC  0008               	return
  6344     13BD                     __end_of_write_ds1307:
  6345                           
  6346                           	psect	text19
  6347     0800                     __ptext19:	
  6348 ;; *************** function _init_digital_keypad *****************
  6349 ;; Defined at:
  6350 ;;		line 15 in file "digital_keypad.c"
  6351 ;; Parameters:    Size  Location     Type
  6352 ;;		None
  6353 ;; Auto vars:     Size  Location     Type
  6354 ;;		None
  6355 ;; Return value:  Size  Location     Type
  6356 ;;                  1    wreg      void 
  6357 ;; Registers used:
  6358 ;;		wreg, status,2
  6359 ;; Tracked objects:
  6360 ;;		On entry : 0/0
  6361 ;;		On exit  : 0/0
  6362 ;;		Unchanged: 0/0
  6363 ;; Data sizes:     COMMON   BANK0   BANK1   BANK3   BANK2
  6364 ;;      Params:         0       0       0       0       0
  6365 ;;      Locals:         0       0       0       0       0
  6366 ;;      Temps:          0       0       0       0       0
  6367 ;;      Totals:         0       0       0       0       0
  6368 ;;Total ram usage:        0 bytes
  6369 ;; Hardware stack levels used: 1
  6370 ;; Hardware stack levels required when called: 1
  6371 ;; This function calls:
  6372 ;;		Nothing
  6373 ;; This function is called by:
  6374 ;;		_init_config
  6375 ;; This function uses a non-reentrant model
  6376 ;;
  6377                           
  6378     0800                     _init_digital_keypad:	
  6379                           ;psect for function _init_digital_keypad
  6380                           
  6381     0800                     l3836:	
  6382                           ;incstack = 0
  6383                           ; Regs used in _init_digital_keypad: [wreg+status,2]
  6384                           
  6385                           
  6386                           ;digital_keypad.c: 16:     TRISB = TRISB | 0x3f;
  6387     0800  1683               	bsf	3,5	;RP0=1, select bank1
  6388     0801  1303               	bcf	3,6	;RP1=0, select bank1
  6389     0802  0806               	movf	6,w	;volatile
  6390     0803  383F               	iorlw	63
  6391     0804  0086               	movwf	6	;volatile
  6392     0805                     l257:
  6393     0805  0008               	return
  6394     0806                     __end_of_init_digital_keypad:
  6395                           
  6396                           	psect	text20
  6397     1269                     __ptext20:	
  6398 ;; *************** function _init_clcd *****************
  6399 ;; Defined at:
  6400 ;;		line 60 in file "CLCD.c"
  6401 ;; Parameters:    Size  Location     Type
  6402 ;;		None
  6403 ;; Auto vars:     Size  Location     Type
  6404 ;;		None
  6405 ;; Return value:  Size  Location     Type
  6406 ;;                  1    wreg      void 
  6407 ;; Registers used:
  6408 ;;		wreg, status,2, status,0, pclath, cstack
  6409 ;; Tracked objects:
  6410 ;;		On entry : 0/0
  6411 ;;		On exit  : 0/0
  6412 ;;		Unchanged: 0/0
  6413 ;; Data sizes:     COMMON   BANK0   BANK1   BANK3   BANK2
  6414 ;;      Params:         0       0       0       0       0
  6415 ;;      Locals:         0       0       0       0       0
  6416 ;;      Temps:          0       0       0       0       0
  6417 ;;      Totals:         0       0       0       0       0
  6418 ;;Total ram usage:        0 bytes
  6419 ;; Hardware stack levels used: 1
  6420 ;; Hardware stack levels required when called: 3
  6421 ;; This function calls:
  6422 ;;		_init_display_controller
  6423 ;; This function is called by:
  6424 ;;		_init_config
  6425 ;; This function uses a non-reentrant model
  6426 ;;
  6427                           
  6428     1269                     _init_clcd:	
  6429                           ;psect for function _init_clcd
  6430                           
  6431     1269                     l3804:	
  6432                           ;incstack = 0
  6433                           ; Regs used in _init_clcd: [wreg+status,2+status,0+pclath+cstack]
  6434                           
  6435                           
  6436                           ;CLCD.c: 62:     TRISD = 0x00;
  6437     1269  1683               	bsf	3,5	;RP0=1, select bank1
  6438     126A  1303               	bcf	3,6	;RP1=0, select bank1
  6439     126B  0188               	clrf	8	;volatile
  6440     126C                     l3806:
  6441                           
  6442                           ;CLCD.c: 65:     TRISE2 = 0;
  6443     126C  1109               	bcf	9,2	;volatile
  6444     126D                     l3808:
  6445                           
  6446                           ;CLCD.c: 66:     TRISE1 = 0;
  6447     126D  1089               	bcf	9,1	;volatile
  6448     126E                     l3810:
  6449                           
  6450                           ;CLCD.c: 68:     init_display_controller();
  6451     126E  160A  118A  279D  160A  118A  	fcall	_init_display_controller
  6452     1273                     l23:
  6453     1273  0008               	return
  6454     1274                     __end_of_init_clcd:
  6455                           
  6456                           	psect	text21
  6457     179D                     __ptext21:	
  6458 ;; *************** function _init_display_controller *****************
  6459 ;; Defined at:
  6460 ;;		line 40 in file "CLCD.c"
  6461 ;; Parameters:    Size  Location     Type
  6462 ;;		None
  6463 ;; Auto vars:     Size  Location     Type
  6464 ;;		None
  6465 ;; Return value:  Size  Location     Type
  6466 ;;                  1    wreg      void 
  6467 ;; Registers used:
  6468 ;;		wreg, status,2, status,0, pclath, cstack
  6469 ;; Tracked objects:
  6470 ;;		On entry : 0/0
  6471 ;;		On exit  : 0/0
  6472 ;;		Unchanged: 0/0
  6473 ;; Data sizes:     COMMON   BANK0   BANK1   BANK3   BANK2
  6474 ;;      Params:         0       0       0       0       0
  6475 ;;      Locals:         0       0       0       0       0
  6476 ;;      Temps:          0       2       0       0       0
  6477 ;;      Totals:         0       2       0       0       0
  6478 ;;Total ram usage:        2 bytes
  6479 ;; Hardware stack levels used: 1
  6480 ;; Hardware stack levels required when called: 2
  6481 ;; This function calls:
  6482 ;;		_clcd_write
  6483 ;; This function is called by:
  6484 ;;		_init_clcd
  6485 ;; This function uses a non-reentrant model
  6486 ;;
  6487                           
  6488     179D                     _init_display_controller:	
  6489                           ;psect for function _init_display_controller
  6490                           
  6491     179D                     l3682:	
  6492                           ;incstack = 0
  6493                           ; Regs used in _init_display_controller: [wreg+status,2+status,0+pclath+cstack]
  6494                           
  6495                           
  6496                           ;CLCD.c: 42:     _delay((unsigned long)((30)*(20000000/4000.0)));
  6497     179D  30C3               	movlw	195
  6498     179E  1283               	bcf	3,5	;RP0=0, select bank0
  6499     179F  1303               	bcf	3,6	;RP1=0, select bank0
  6500     17A0  00C6               	movwf	??_init_display_controller+1
  6501     17A1  30CC               	movlw	204
  6502     17A2  00C5               	movwf	??_init_display_controller
  6503     17A3                     u4927:
  6504     17A3  0BC5               	decfsz	??_init_display_controller,f
  6505     17A4  2FA3               	goto	u4927
  6506     17A5  0BC6               	decfsz	??_init_display_controller+1,f
  6507     17A6  2FA3               	goto	u4927
  6508     17A7  0000               	nop
  6509     17A8                     l3684:
  6510                           
  6511                           ;CLCD.c: 44:     clcd_write(0x33, 0);
  6512     17A8  01F3               	clrf	clcd_write@mode
  6513     17A9  3033               	movlw	51
  6514     17AA  160A  118A  2316  160A  118A  	fcall	_clcd_write
  6515     17AF                     l3686:
  6516                           
  6517                           ;CLCD.c: 45:     _delay((unsigned long)((4100)*(20000000/4000000.0)));
  6518     17AF  301B               	movlw	27
  6519     17B0  1283               	bcf	3,5	;RP0=0, select bank0
  6520     17B1  1303               	bcf	3,6	;RP1=0, select bank0
  6521     17B2  00C6               	movwf	??_init_display_controller+1
  6522     17B3  309D               	movlw	157
  6523     17B4  00C5               	movwf	??_init_display_controller
  6524     17B5                     u4937:
  6525     17B5  0BC5               	decfsz	??_init_display_controller,f
  6526     17B6  2FB5               	goto	u4937
  6527     17B7  0BC6               	decfsz	??_init_display_controller+1,f
  6528     17B8  2FB5               	goto	u4937
  6529     17B9  2FBA               	nop2
  6530                           
  6531                           ;CLCD.c: 46:     clcd_write(0x33, 0);
  6532     17BA  01F3               	clrf	clcd_write@mode
  6533     17BB  3033               	movlw	51
  6534     17BC  160A  118A  2316  160A  118A  	fcall	_clcd_write
  6535     17C1                     l3688:
  6536                           
  6537                           ;CLCD.c: 47:     _delay((unsigned long)((100)*(20000000/4000000.0)));
  6538     17C1  30A5               	movlw	165
  6539     17C2  1283               	bcf	3,5	;RP0=0, select bank0
  6540     17C3  1303               	bcf	3,6	;RP1=0, select bank0
  6541     17C4  00C5               	movwf	??_init_display_controller
  6542     17C5                     u4947:
  6543     17C5  0BC5               	decfsz	??_init_display_controller,f
  6544     17C6  2FC5               	goto	u4947
  6545     17C7  2FC8               	nop2
  6546     17C8                     l3690:
  6547                           
  6548                           ;CLCD.c: 48:     clcd_write(0x33, 0);
  6549     17C8  01F3               	clrf	clcd_write@mode
  6550     17C9  3033               	movlw	51
  6551     17CA  160A  118A  2316  160A  118A  	fcall	_clcd_write
  6552     17CF                     l3692:
  6553                           
  6554                           ;CLCD.c: 49:     _delay((unsigned long)((1)*(20000000/4000000.0)));
  6555     17CF  2FD0               	nop2	;2 cycle nop
  6556     17D0  2FD1               	nop2	;2 cycle nop
  6557     17D1  0000               	nop
  6558     17D2                     l3694:
  6559                           
  6560                           ;CLCD.c: 51:     clcd_write(0x38, 0);
  6561     17D2  01F3               	clrf	clcd_write@mode
  6562     17D3  3038               	movlw	56
  6563     17D4  160A  118A  2316  160A  118A  	fcall	_clcd_write
  6564     17D9                     l3696:
  6565                           
  6566                           ;CLCD.c: 52:     _delay((unsigned long)((100)*(20000000/4000000.0)));
  6567     17D9  30A5               	movlw	165
  6568     17DA  1283               	bcf	3,5	;RP0=0, select bank0
  6569     17DB  1303               	bcf	3,6	;RP1=0, select bank0
  6570     17DC  00C5               	movwf	??_init_display_controller
  6571     17DD                     u4957:
  6572     17DD  0BC5               	decfsz	??_init_display_controller,f
  6573     17DE  2FDD               	goto	u4957
  6574     17DF  2FE0               	nop2
  6575                           
  6576                           ;CLCD.c: 53:     clcd_write(0x01, 0);
  6577     17E0  01F3               	clrf	clcd_write@mode
  6578     17E1  3001               	movlw	1
  6579     17E2  160A  118A  2316  160A  118A  	fcall	_clcd_write
  6580     17E7                     l3698:
  6581                           
  6582                           ;CLCD.c: 54:     _delay((unsigned long)((500)*(20000000/4000000.0)));
  6583     17E7  3004               	movlw	4
  6584     17E8  1283               	bcf	3,5	;RP0=0, select bank0
  6585     17E9  1303               	bcf	3,6	;RP1=0, select bank0
  6586     17EA  00C6               	movwf	??_init_display_controller+1
  6587     17EB  303D               	movlw	61
  6588     17EC  00C5               	movwf	??_init_display_controller
  6589     17ED                     u4967:
  6590     17ED  0BC5               	decfsz	??_init_display_controller,f
  6591     17EE  2FED               	goto	u4967
  6592     17EF  0BC6               	decfsz	??_init_display_controller+1,f
  6593     17F0  2FED               	goto	u4967
  6594     17F1                     l3700:
  6595                           
  6596                           ;CLCD.c: 55:     clcd_write(0x0C, 0);
  6597     17F1  01F3               	clrf	clcd_write@mode
  6598     17F2  300C               	movlw	12
  6599     17F3  160A  118A  2316  160A  118A  	fcall	_clcd_write
  6600                           
  6601                           ;CLCD.c: 56:     _delay((unsigned long)((100)*(20000000/4000000.0)));
  6602     17F8  30A5               	movlw	165
  6603     17F9  1283               	bcf	3,5	;RP0=0, select bank0
  6604     17FA  1303               	bcf	3,6	;RP1=0, select bank0
  6605     17FB  00C5               	movwf	??_init_display_controller
  6606     17FC                     u4977:
  6607     17FC  0BC5               	decfsz	??_init_display_controller,f
  6608     17FD  2FFC               	goto	u4977
  6609     17FE  2FFF               	nop2
  6610     17FF                     l20:
  6611     17FF  0008               	return
  6612     1800                     __end_of_init_display_controller:
  6613                           
  6614                           	psect	text22
  6615     07F9                     __ptext22:	
  6616 ;; *************** function _init_adc *****************
  6617 ;; Defined at:
  6618 ;;		line 11 in file "adc.c"
  6619 ;; Parameters:    Size  Location     Type
  6620 ;;		None
  6621 ;; Auto vars:     Size  Location     Type
  6622 ;;		None
  6623 ;; Return value:  Size  Location     Type
  6624 ;;                  1    wreg      void 
  6625 ;; Registers used:
  6626 ;;		None
  6627 ;; Tracked objects:
  6628 ;;		On entry : 0/0
  6629 ;;		On exit  : 0/0
  6630 ;;		Unchanged: 0/0
  6631 ;; Data sizes:     COMMON   BANK0   BANK1   BANK3   BANK2
  6632 ;;      Params:         0       0       0       0       0
  6633 ;;      Locals:         0       0       0       0       0
  6634 ;;      Temps:          0       0       0       0       0
  6635 ;;      Totals:         0       0       0       0       0
  6636 ;;Total ram usage:        0 bytes
  6637 ;; Hardware stack levels used: 1
  6638 ;; Hardware stack levels required when called: 1
  6639 ;; This function calls:
  6640 ;;		Nothing
  6641 ;; This function is called by:
  6642 ;;		_init_config
  6643 ;; This function uses a non-reentrant model
  6644 ;;
  6645                           
  6646     07F9                     _init_adc:	
  6647                           ;psect for function _init_adc
  6648                           
  6649     07F9                     l3838:	
  6650                           ;incstack = 0
  6651                           ; Regs used in _init_adc: []
  6652                           
  6653                           
  6654                           ;adc.c: 14:     ADFM = 1;
  6655     07F9  1683               	bsf	3,5	;RP0=1, select bank1
  6656     07FA  1303               	bcf	3,6	;RP1=0, select bank1
  6657     07FB  179F               	bsf	31,7	;volatile
  6658                           
  6659                           ;adc.c: 17:     ADON = 1;
  6660     07FC  1283               	bcf	3,5	;RP0=0, select bank0
  6661     07FD  1303               	bcf	3,6	;RP1=0, select bank0
  6662     07FE  141F               	bsf	31,0	;volatile
  6663     07FF                     l501:
  6664     07FF  0008               	return
  6665     0800                     __end_of_init_adc:
  6666                           
  6667                           	psect	text23
  6668     0788                     __ptext23:	
  6669 ;; *************** function _download_log *****************
  6670 ;; Defined at:
  6671 ;;		line 349 in file "helper.c"
  6672 ;; Parameters:    Size  Location     Type
  6673 ;;		None
  6674 ;; Auto vars:     Size  Location     Type
  6675 ;;  i               1    9[BANK0 ] unsigned char 
  6676 ;; Return value:  Size  Location     Type
  6677 ;;                  1    wreg      void 
  6678 ;; Registers used:
  6679 ;;		wreg, fsr0l, fsr0h, status,2, status,0, pclath, btemp1, cstack
  6680 ;; Tracked objects:
  6681 ;;		On entry : 0/0
  6682 ;;		On exit  : 0/0
  6683 ;;		Unchanged: 0/0
  6684 ;; Data sizes:     COMMON   BANK0   BANK1   BANK3   BANK2
  6685 ;;      Params:         0       0       0       0       0
  6686 ;;      Locals:         0       1       0       0       0
  6687 ;;      Temps:          0       3       0       0       0
  6688 ;;      Totals:         0       4       0       0       0
  6689 ;;Total ram usage:        4 bytes
  6690 ;; Hardware stack levels used: 1
  6691 ;; Hardware stack levels required when called: 3
  6692 ;; This function calls:
  6693 ;;		_clcd_print
  6694 ;;		_display_uart
  6695 ;;		_get_log
  6696 ;; This function is called by:
  6697 ;;		_main
  6698 ;; This function uses a non-reentrant model
  6699 ;;
  6700                           
  6701     0788                     _download_log:	
  6702                           ;psect for function _download_log
  6703                           
  6704     0788                     l4344:	
  6705                           ;incstack = 0
  6706                           ; Regs used in _download_log: [wreg-fsr0h+status,2+status,0+pclath+btemp1+cstack]
  6707                           
  6708                           
  6709                           ;helper.c: 350:     unsigned char i = 0;
  6710     0788  1283               	bcf	3,5	;RP0=0, select bank0
  6711     0789  1303               	bcf	3,6	;RP1=0, select bank0
  6712     078A  01CE               	clrf	download_log@i
  6713     078B                     l4346:
  6714                           
  6715                           ;helper.c: 351:     if (log_count == -1) {
  6716     078B  0A64               	incf	_log_count,w
  6717     078C  1D03               	btfss	3,2
  6718     078D  2F8F               	goto	u4301
  6719     078E  2F90               	goto	u4300
  6720     078F                     u4301:
  6721     078F  2FBD               	goto	l4356
  6722     0790                     u4300:
  6723     0790                     l4348:
  6724                           
  6725                           ;helper.c: 352:         clcd_print("   NO LOGS   ", (0x80 + 0));
  6726     0790  305B               	movlw	low (STR_31| (0+32768))
  6727     0791  00C5               	movwf	clcd_print@str
  6728     0792  3086               	movlw	high (STR_31| (0+32768))
  6729     0793  00C6               	movwf	clcd_print@str+1
  6730     0794  3080               	movlw	128
  6731     0795  00C7               	movwf	clcd_print@addr
  6732     0796  160A  118A  24CC  120A  118A  	fcall	_clcd_print
  6733                           
  6734                           ;helper.c: 353:         clcd_print("  AVAILABLE  ", (0xC0 + 0));
  6735     079B  3069               	movlw	low (STR_32| (0+32768))
  6736     079C  1283               	bcf	3,5	;RP0=0, select bank0
  6737     079D  1303               	bcf	3,6	;RP1=0, select bank0
  6738     079E  00C5               	movwf	clcd_print@str
  6739     079F  3086               	movlw	high (STR_32| (0+32768))
  6740     07A0  00C6               	movwf	clcd_print@str+1
  6741     07A1  30C0               	movlw	192
  6742     07A2  00C7               	movwf	clcd_print@addr
  6743     07A3  160A  118A  24CC  120A  118A  	fcall	_clcd_print
  6744                           
  6745                           ;helper.c: 354:     } else {
  6746     07A8  2FE9               	goto	l4360
  6747     07A9                     l4350:
  6748                           
  6749                           ;helper.c: 356:             get_log(i);
  6750     07A9  1283               	bcf	3,5	;RP0=0, select bank0
  6751     07AA  1303               	bcf	3,6	;RP1=0, select bank0
  6752     07AB  084E               	movf	download_log@i,w
  6753     07AC  160A  118A  2468  120A  118A  	fcall	_get_log
  6754     07B1                     l4352:
  6755                           
  6756                           ;helper.c: 357:             display_uart(i);
  6757     07B1  1283               	bcf	3,5	;RP0=0, select bank0
  6758     07B2  1303               	bcf	3,6	;RP1=0, select bank0
  6759     07B3  084E               	movf	download_log@i,w
  6760     07B4  120A  158A  22C4  120A  118A  	fcall	_display_uart
  6761     07B9                     l4354:
  6762                           
  6763                           ;helper.c: 358:             i++;
  6764     07B9  3001               	movlw	1
  6765     07BA  1283               	bcf	3,5	;RP0=0, select bank0
  6766     07BB  1303               	bcf	3,6	;RP1=0, select bank0
  6767     07BC  07CE               	addwf	download_log@i,f
  6768     07BD                     l4356:
  6769                           
  6770                           ;helper.c: 355:         while (i <= log_count) {
  6771     07BD  0864               	movf	_log_count,w
  6772     07BE  00CB               	movwf	??_download_log
  6773     07BF  01CC               	clrf	??_download_log+1
  6774     07C0  1BCB               	btfsc	??_download_log,7
  6775     07C1  03CC               	decf	??_download_log+1,f
  6776     07C2  084C               	movf	??_download_log+1,w
  6777     07C3  3A80               	xorlw	128
  6778     07C4  00CD               	movwf	??_download_log+2
  6779     07C5  3080               	movlw	128
  6780     07C6  024D               	subwf	??_download_log+2,w
  6781     07C7  1D03               	skipz
  6782     07C8  2FCB               	goto	u4315
  6783     07C9  084E               	movf	download_log@i,w
  6784     07CA  024B               	subwf	??_download_log,w
  6785     07CB                     u4315:
  6786     07CB  1803               	skipnc
  6787     07CC  2FCE               	goto	u4311
  6788     07CD  2FCF               	goto	u4310
  6789     07CE                     u4311:
  6790     07CE  2FA9               	goto	l4350
  6791     07CF                     u4310:
  6792     07CF                     l4358:
  6793                           
  6794                           ;helper.c: 360:         clcd_print(" LOG DOWNLOADED ", (0x80 + 0));
  6795     07CF  3044               	movlw	low (STR_33| (0+32768))
  6796     07D0  1283               	bcf	3,5	;RP0=0, select bank0
  6797     07D1  1303               	bcf	3,6	;RP1=0, select bank0
  6798     07D2  00C5               	movwf	clcd_print@str
  6799     07D3  3085               	movlw	high (STR_33| (0+32768))
  6800     07D4  00C6               	movwf	clcd_print@str+1
  6801     07D5  3080               	movlw	128
  6802     07D6  00C7               	movwf	clcd_print@addr
  6803     07D7  160A  118A  24CC  120A  118A  	fcall	_clcd_print
  6804                           
  6805                           ;helper.c: 361:         clcd_print("  SUCCESSFULLY  ", (0xC0 + 0));
  6806     07DC  3033               	movlw	low (STR_30| (0+32768))
  6807     07DD  1283               	bcf	3,5	;RP0=0, select bank0
  6808     07DE  1303               	bcf	3,6	;RP1=0, select bank0
  6809     07DF  00C5               	movwf	clcd_print@str
  6810     07E0  3085               	movlw	high (STR_30| (0+32768))
  6811     07E1  00C6               	movwf	clcd_print@str+1
  6812     07E2  30C0               	movlw	192
  6813     07E3  00C7               	movwf	clcd_print@addr
  6814     07E4  160A  118A  24CC  120A  118A  	fcall	_clcd_print
  6815     07E9                     l4360:
  6816                           
  6817                           ;helper.c: 363:     _delay((unsigned long)((1500)*(20000000/4000.0)));
  6818     07E9  3027               	movlw	39
  6819     07EA  1283               	bcf	3,5	;RP0=0, select bank0
  6820     07EB  1303               	bcf	3,6	;RP1=0, select bank0
  6821     07EC  00CD               	movwf	??_download_log+2
  6822     07ED  300D               	movlw	13
  6823     07EE  00CC               	movwf	??_download_log+1
  6824     07EF  3025               	movlw	37
  6825     07F0  00CB               	movwf	??_download_log
  6826     07F1                     u4987:
  6827     07F1  0BCB               	decfsz	??_download_log,f
  6828     07F2  2FF1               	goto	u4987
  6829     07F3  0BCC               	decfsz	??_download_log+1,f
  6830     07F4  2FF1               	goto	u4987
  6831     07F5  0BCD               	decfsz	??_download_log+2,f
  6832     07F6  2FF1               	goto	u4987
  6833     07F7  2FF8               	nop2
  6834     07F8                     l426:
  6835     07F8  0008               	return
  6836     07F9                     __end_of_download_log:
  6837                           
  6838                           	psect	text24
  6839     1468                     __ptext24:	
  6840 ;; *************** function _get_log *****************
  6841 ;; Defined at:
  6842 ;;		line 226 in file "helper.c"
  6843 ;; Parameters:    Size  Location     Type
  6844 ;;  log_pos         1    wreg     unsigned char 
  6845 ;; Auto vars:     Size  Location     Type
  6846 ;;  log_pos         1    0[BANK0 ] unsigned char 
  6847 ;;  i               2    2[BANK0 ] unsigned int 
  6848 ;;  addr            1    1[BANK0 ] unsigned char 
  6849 ;; Return value:  Size  Location     Type
  6850 ;;                  1    wreg      void 
  6851 ;; Registers used:
  6852 ;;		wreg, fsr0l, fsr0h, status,2, status,0, pclath, cstack
  6853 ;; Tracked objects:
  6854 ;;		On entry : 0/0
  6855 ;;		On exit  : 0/0
  6856 ;;		Unchanged: 0/0
  6857 ;; Data sizes:     COMMON   BANK0   BANK1   BANK3   BANK2
  6858 ;;      Params:         0       0       0       0       0
  6859 ;;      Locals:         0       4       0       0       0
  6860 ;;      Temps:          0       0       0       0       0
  6861 ;;      Totals:         0       4       0       0       0
  6862 ;;Total ram usage:        4 bytes
  6863 ;; Hardware stack levels used: 1
  6864 ;; Hardware stack levels required when called: 1
  6865 ;; This function calls:
  6866 ;;		___bmul
  6867 ;;		_ext_eeprom_24C02_read
  6868 ;; This function is called by:
  6869 ;;		_display_log
  6870 ;;		_download_log
  6871 ;; This function uses a non-reentrant model
  6872 ;;
  6873                           
  6874     1468                     _get_log:	
  6875                           ;psect for function _get_log
  6876                           
  6877                           
  6878                           ;incstack = 0
  6879                           ; Regs used in _get_log: [wreg-fsr0h+status,2+status,0+pclath+cstack]
  6880                           ;get_log@log_pos stored from wreg
  6881     1468  1283               	bcf	3,5	;RP0=0, select bank0
  6882     1469  1303               	bcf	3,6	;RP1=0, select bank0
  6883     146A  00C5               	movwf	get_log@log_pos
  6884     146B                     l3722:
  6885                           
  6886                           ;helper.c: 227:     unsigned char addr;;helper.c: 229:     addr = log_pos * 10 + 5;
  6887     146B  300A               	movlw	10
  6888     146C  00F3               	movwf	___bmul@multiplicand
  6889     146D  0845               	movf	get_log@log_pos,w
  6890     146E  160A  118A  2293  160A  118A  	fcall	___bmul
  6891     1473  3E05               	addlw	5
  6892     1474  1283               	bcf	3,5	;RP0=0, select bank0
  6893     1475  1303               	bcf	3,6	;RP1=0, select bank0
  6894     1476  00C6               	movwf	get_log@addr
  6895     1477                     l3724:
  6896                           
  6897                           ;helper.c: 231:     for (unsigned int i = 0; i < 10; i++) {
  6898     1477  01C7               	clrf	get_log@i
  6899     1478  01C8               	clrf	get_log@i+1
  6900     1479                     l3730:
  6901                           
  6902                           ;helper.c: 232:         saved_log[i] = ext_eeprom_24C02_read(addr + i);
  6903     1479  0847               	movf	get_log@i,w
  6904     147A  3EA0               	addlw	(low (_saved_log| 0))& (0+255)
  6905     147B  0084               	movwf	4
  6906     147C  0847               	movf	get_log@i,w
  6907     147D  0746               	addwf	get_log@addr,w
  6908     147E  160A  118A  23E5  160A  118A  	fcall	_ext_eeprom_24C02_read
  6909     1483  1383               	bcf	3,7	;select IRP bank1
  6910     1484  0080               	movwf	0
  6911     1485                     l3732:
  6912                           
  6913                           ;helper.c: 233:     }
  6914     1485  3001               	movlw	1
  6915     1486  1283               	bcf	3,5	;RP0=0, select bank0
  6916     1487  1303               	bcf	3,6	;RP1=0, select bank0
  6917     1488  07C7               	addwf	get_log@i,f
  6918     1489  1803               	skipnc
  6919     148A  0AC8               	incf	get_log@i+1,f
  6920     148B  3000               	movlw	0
  6921     148C  07C8               	addwf	get_log@i+1,f
  6922     148D                     l3734:
  6923     148D  3000               	movlw	0
  6924     148E  0248               	subwf	get_log@i+1,w
  6925     148F  300A               	movlw	10
  6926     1490  1903               	skipnz
  6927     1491  0247               	subwf	get_log@i,w
  6928     1492  1C03               	skipc
  6929     1493  2C95               	goto	u3411
  6930     1494  2C96               	goto	u3410
  6931     1495                     u3411:
  6932     1495  2C79               	goto	l3730
  6933     1496                     u3410:
  6934     1496                     l3736:
  6935                           
  6936                           ;helper.c: 234:     saved_log[10] = '\0';
  6937     1496  1683               	bsf	3,5	;RP0=1, select bank1
  6938     1497  1303               	bcf	3,6	;RP1=0, select bank1
  6939     1498  01AA               	clrf	(_saved_log^(0+128)+10)
  6940     1499                     l394:
  6941     1499  0008               	return
  6942     149A                     __end_of_get_log:
  6943                           
  6944                           	psect	text25
  6945     1293                     __ptext25:	
  6946 ;; *************** function ___bmul *****************
  6947 ;; Defined at:
  6948 ;;		line 4 in file "C:\Program Files\Microchip\xc8\v3.10\pic\sources\c99\common\Umul8.c"
  6949 ;; Parameters:    Size  Location     Type
  6950 ;;  multiplier      1    wreg     unsigned char 
  6951 ;;  multiplicand    1    3[COMMON] unsigned char 
  6952 ;; Auto vars:     Size  Location     Type
  6953 ;;  multiplier      1    5[COMMON] unsigned char 
  6954 ;;  product         1    4[COMMON] unsigned char 
  6955 ;; Return value:  Size  Location     Type
  6956 ;;                  1    wreg      unsigned char 
  6957 ;; Registers used:
  6958 ;;		wreg, status,2, status,0
  6959 ;; Tracked objects:
  6960 ;;		On entry : 0/0
  6961 ;;		On exit  : 0/0
  6962 ;;		Unchanged: 0/0
  6963 ;; Data sizes:     COMMON   BANK0   BANK1   BANK3   BANK2
  6964 ;;      Params:         1       0       0       0       0
  6965 ;;      Locals:         2       0       0       0       0
  6966 ;;      Temps:          0       0       0       0       0
  6967 ;;      Totals:         3       0       0       0       0
  6968 ;;Total ram usage:        3 bytes
  6969 ;; Hardware stack levels used: 1
  6970 ;; Hardware stack levels required when called: 1
  6971 ;; This function calls:
  6972 ;;		Nothing
  6973 ;; This function is called by:
  6974 ;;		_log_event
  6975 ;;		_get_log
  6976 ;;		_set_time
  6977 ;; This function uses a non-reentrant model
  6978 ;;
  6979                           
  6980     1293                     ___bmul:	
  6981                           ;psect for function ___bmul
  6982                           
  6983                           
  6984                           ;incstack = 0
  6985                           ; Regs used in ___bmul: [wreg+status,2+status,0]
  6986                           ;___bmul@multiplier stored from wreg
  6987     1293  00F5               	movwf	___bmul@multiplier
  6988     1294                     l3668:
  6989     1294  01F4               	clrf	___bmul@product
  6990     1295                     l3670:
  6991     1295  1C75               	btfss	___bmul@multiplier,0
  6992     1296  2A98               	goto	u3361
  6993     1297  2A99               	goto	u3360
  6994     1298                     u3361:
  6995     1298  2A9B               	goto	l3674
  6996     1299                     u3360:
  6997     1299                     l3672:
  6998     1299  0873               	movf	___bmul@multiplicand,w
  6999     129A  07F4               	addwf	___bmul@product,f
  7000     129B                     l3674:
  7001     129B  1003               	clrc
  7002     129C  0DF3               	rlf	___bmul@multiplicand,f
  7003     129D                     l3676:
  7004     129D  1003               	clrc
  7005     129E  0CF5               	rrf	___bmul@multiplier,f
  7006     129F  0875               	movf	___bmul@multiplier,w
  7007     12A0  1D03               	btfss	3,2
  7008     12A1  2AA3               	goto	u3371
  7009     12A2  2AA4               	goto	u3370
  7010     12A3                     u3371:
  7011     12A3  2A95               	goto	l3670
  7012     12A4                     u3370:
  7013     12A4                     l3678:
  7014     12A4  0874               	movf	___bmul@product,w
  7015     12A5                     l715:
  7016     12A5  0008               	return
  7017     12A6                     __end_of___bmul:
  7018                           
  7019                           	psect	text26
  7020     0AC4                     __ptext26:	
  7021 ;; *************** function _display_uart *****************
  7022 ;; Defined at:
  7023 ;;		line 316 in file "helper.c"
  7024 ;; Parameters:    Size  Location     Type
  7025 ;;  log_pos         1    wreg     unsigned char 
  7026 ;; Auto vars:     Size  Location     Type
  7027 ;;  log_pos         1    5[BANK0 ] unsigned char 
  7028 ;; Return value:  Size  Location     Type
  7029 ;;                  1    wreg      void 
  7030 ;; Registers used:
  7031 ;;		wreg, status,2, status,0, pclath, cstack
  7032 ;; Tracked objects:
  7033 ;;		On entry : 0/0
  7034 ;;		On exit  : 0/0
  7035 ;;		Unchanged: 0/0
  7036 ;; Data sizes:     COMMON   BANK0   BANK1   BANK3   BANK2
  7037 ;;      Params:         0       0       0       0       0
  7038 ;;      Locals:         0       1       0       0       0
  7039 ;;      Temps:          0       2       0       0       0
  7040 ;;      Totals:         0       3       0       0       0
  7041 ;;Total ram usage:        3 bytes
  7042 ;; Hardware stack levels used: 1
  7043 ;; Hardware stack levels required when called: 2
  7044 ;; This function calls:
  7045 ;;		___awmod
  7046 ;;		_putchar
  7047 ;; This function is called by:
  7048 ;;		_download_log
  7049 ;; This function uses a non-reentrant model
  7050 ;;
  7051                           
  7052     0AC4                     _display_uart:	
  7053                           ;psect for function _display_uart
  7054                           
  7055                           
  7056                           ;incstack = 0
  7057                           ; Regs used in _display_uart: [wreg+status,2+status,0+pclath+cstack]
  7058                           ;display_uart@log_pos stored from wreg
  7059     0AC4  1283               	bcf	3,5	;RP0=0, select bank0
  7060     0AC5  1303               	bcf	3,6	;RP1=0, select bank0
  7061     0AC6  00CA               	movwf	display_uart@log_pos
  7062     0AC7                     l3936:
  7063                           
  7064                           ;helper.c: 318:     putchar('#');
  7065     0AC7  3023               	movlw	35
  7066     0AC8  160A  118A  225E  120A  158A  	fcall	_putchar
  7067                           
  7068                           ;helper.c: 319:     putchar((log_pos) % 10 + '0');
  7069     0ACD  300A               	movlw	10
  7070     0ACE  00F3               	movwf	___awmod@divisor
  7071     0ACF  3000               	movlw	0
  7072     0AD0  00F4               	movwf	___awmod@divisor+1
  7073     0AD1  1283               	bcf	3,5	;RP0=0, select bank0
  7074     0AD2  1303               	bcf	3,6	;RP1=0, select bank0
  7075     0AD3  084A               	movf	display_uart@log_pos,w
  7076     0AD4  00C8               	movwf	??_display_uart
  7077     0AD5  01C9               	clrf	??_display_uart+1
  7078     0AD6  0848               	movf	??_display_uart,w
  7079     0AD7  00F5               	movwf	___awmod@dividend
  7080     0AD8  0849               	movf	??_display_uart+1,w
  7081     0AD9  00F6               	movwf	___awmod@dividend+1
  7082     0ADA  120A  158A  2006  120A  158A  	fcall	___awmod
  7083     0ADF  0873               	movf	?___awmod,w
  7084     0AE0  3E30               	addlw	48
  7085     0AE1  160A  118A  225E  120A  158A  	fcall	_putchar
  7086                           
  7087                           ;helper.c: 320:     putchar(' ');
  7088     0AE6  3020               	movlw	32
  7089     0AE7  160A  118A  225E  120A  158A  	fcall	_putchar
  7090                           
  7091                           ;helper.c: 322:     putchar(saved_log[0]);
  7092     0AEC  1683               	bsf	3,5	;RP0=1, select bank1
  7093     0AED  1303               	bcf	3,6	;RP1=0, select bank1
  7094     0AEE  0820               	movf	_saved_log^(0+128),w
  7095     0AEF  160A  118A  225E  120A  158A  	fcall	_putchar
  7096                           
  7097                           ;helper.c: 323:     putchar(saved_log[1]);
  7098     0AF4  1683               	bsf	3,5	;RP0=1, select bank1
  7099     0AF5  1303               	bcf	3,6	;RP1=0, select bank1
  7100     0AF6  0821               	movf	(_saved_log^(0+128)+1),w
  7101     0AF7  160A  118A  225E  120A  158A  	fcall	_putchar
  7102                           
  7103                           ;helper.c: 325:     putchar(':');
  7104     0AFC  303A               	movlw	58
  7105     0AFD  160A  118A  225E  120A  158A  	fcall	_putchar
  7106                           
  7107                           ;helper.c: 327:     putchar(saved_log[2]);
  7108     0B02  1683               	bsf	3,5	;RP0=1, select bank1
  7109     0B03  1303               	bcf	3,6	;RP1=0, select bank1
  7110     0B04  0822               	movf	(_saved_log^(0+128)+2),w
  7111     0B05  160A  118A  225E  120A  158A  	fcall	_putchar
  7112                           
  7113                           ;helper.c: 328:     putchar(saved_log[3]);
  7114     0B0A  1683               	bsf	3,5	;RP0=1, select bank1
  7115     0B0B  1303               	bcf	3,6	;RP1=0, select bank1
  7116     0B0C  0823               	movf	(_saved_log^(0+128)+3),w
  7117     0B0D  160A  118A  225E  120A  158A  	fcall	_putchar
  7118                           
  7119                           ;helper.c: 330:     putchar(':');
  7120     0B12  303A               	movlw	58
  7121     0B13  160A  118A  225E  120A  158A  	fcall	_putchar
  7122                           
  7123                           ;helper.c: 332:     putchar(saved_log[4]);
  7124     0B18  1683               	bsf	3,5	;RP0=1, select bank1
  7125     0B19  1303               	bcf	3,6	;RP1=0, select bank1
  7126     0B1A  0824               	movf	(_saved_log^(0+128)+4),w
  7127     0B1B  160A  118A  225E  120A  158A  	fcall	_putchar
  7128                           
  7129                           ;helper.c: 333:     putchar(saved_log[5]);
  7130     0B20  1683               	bsf	3,5	;RP0=1, select bank1
  7131     0B21  1303               	bcf	3,6	;RP1=0, select bank1
  7132     0B22  0825               	movf	(_saved_log^(0+128)+5),w
  7133     0B23  160A  118A  225E  120A  158A  	fcall	_putchar
  7134                           
  7135                           ;helper.c: 335:     putchar(' ');
  7136     0B28  3020               	movlw	32
  7137     0B29  160A  118A  225E  120A  158A  	fcall	_putchar
  7138                           
  7139                           ;helper.c: 337:     putchar(saved_log[6]);
  7140     0B2E  1683               	bsf	3,5	;RP0=1, select bank1
  7141     0B2F  1303               	bcf	3,6	;RP1=0, select bank1
  7142     0B30  0826               	movf	(_saved_log^(0+128)+6),w
  7143     0B31  160A  118A  225E  120A  158A  	fcall	_putchar
  7144                           
  7145                           ;helper.c: 338:     putchar(saved_log[7]);
  7146     0B36  1683               	bsf	3,5	;RP0=1, select bank1
  7147     0B37  1303               	bcf	3,6	;RP1=0, select bank1
  7148     0B38  0827               	movf	(_saved_log^(0+128)+7),w
  7149     0B39  160A  118A  225E  120A  158A  	fcall	_putchar
  7150                           
  7151                           ;helper.c: 340:     putchar(' ');
  7152     0B3E  3020               	movlw	32
  7153     0B3F  160A  118A  225E  120A  158A  	fcall	_putchar
  7154                           
  7155                           ;helper.c: 342:     putchar(saved_log[8]);
  7156     0B44  1683               	bsf	3,5	;RP0=1, select bank1
  7157     0B45  1303               	bcf	3,6	;RP1=0, select bank1
  7158     0B46  0828               	movf	(_saved_log^(0+128)+8),w
  7159     0B47  160A  118A  225E  120A  158A  	fcall	_putchar
  7160                           
  7161                           ;helper.c: 343:     putchar(saved_log[9]);
  7162     0B4C  1683               	bsf	3,5	;RP0=1, select bank1
  7163     0B4D  1303               	bcf	3,6	;RP1=0, select bank1
  7164     0B4E  0829               	movf	(_saved_log^(0+128)+9),w
  7165     0B4F  160A  118A  225E  120A  158A  	fcall	_putchar
  7166                           
  7167                           ;helper.c: 345:     putchar('\r');
  7168     0B54  300D               	movlw	13
  7169     0B55  160A  118A  225E  120A  158A  	fcall	_putchar
  7170                           
  7171                           ;helper.c: 346:     putchar('\n');
  7172     0B5A  300A               	movlw	10
  7173     0B5B  160A  118A  225E  120A  158A  	fcall	_putchar
  7174     0B60                     l418:
  7175     0B60  0008               	return
  7176     0B61                     __end_of_display_uart:
  7177                           
  7178                           	psect	text27
  7179     125E                     __ptext27:	
  7180 ;; *************** function _putchar *****************
  7181 ;; Defined at:
  7182 ;;		line 38 in file "uart.c"
  7183 ;; Parameters:    Size  Location     Type
  7184 ;;  data            1    wreg     unsigned char 
  7185 ;; Auto vars:     Size  Location     Type
  7186 ;;  data            1    2[BANK0 ] unsigned char 
  7187 ;; Return value:  Size  Location     Type
  7188 ;;                  1    wreg      void 
  7189 ;; Registers used:
  7190 ;;		wreg
  7191 ;; Tracked objects:
  7192 ;;		On entry : 0/0
  7193 ;;		On exit  : 0/0
  7194 ;;		Unchanged: 0/0
  7195 ;; Data sizes:     COMMON   BANK0   BANK1   BANK3   BANK2
  7196 ;;      Params:         0       0       0       0       0
  7197 ;;      Locals:         0       1       0       0       0
  7198 ;;      Temps:          0       0       0       0       0
  7199 ;;      Totals:         0       1       0       0       0
  7200 ;;Total ram usage:        1 bytes
  7201 ;; Hardware stack levels used: 1
  7202 ;; Hardware stack levels required when called: 1
  7203 ;; This function calls:
  7204 ;;		Nothing
  7205 ;; This function is called by:
  7206 ;;		_display_uart
  7207 ;;		_puts
  7208 ;; This function uses a non-reentrant model
  7209 ;;
  7210                           
  7211     125E                     _putchar:	
  7212                           ;psect for function _putchar
  7213                           
  7214                           
  7215                           ;incstack = 0
  7216                           ; Regs used in _putchar: [wreg]
  7217                           ;putchar@data stored from wreg
  7218     125E  1283               	bcf	3,5	;RP0=0, select bank0
  7219     125F  1303               	bcf	3,6	;RP1=0, select bank0
  7220     1260  00C7               	movwf	putchar@data
  7221     1261                     l3738:
  7222                           
  7223                           ;uart.c: 41: }
  7224     1261  0847               	movf	putchar@data,w
  7225     1262  0099               	movwf	25	;volatile
  7226     1263                     l595:
  7227     1263  1E0C               	btfss	12,4	;volatile
  7228     1264  2A66               	goto	u3421
  7229     1265  2A67               	goto	u3420
  7230     1266                     u3421:
  7231     1266  2A63               	goto	l595
  7232     1267                     u3420:
  7233     1267                     l596:
  7234     1267  120C               	bcf	12,4	;volatile
  7235     1268                     l597:
  7236     1268  0008               	return
  7237     1269                     __end_of_putchar:
  7238                           
  7239                           	psect	text28
  7240     1682                     __ptext28:	
  7241 ;; *************** function _display_dashboard *****************
  7242 ;; Defined at:
  7243 ;;		line 69 in file "helper.c"
  7244 ;; Parameters:    Size  Location     Type
  7245 ;;  event           1    6[BANK0 ] PTR unsigned char 
  7246 ;;		 -> main@event(3), 
  7247 ;;  speed           1    7[BANK0 ] unsigned char 
  7248 ;; Auto vars:     Size  Location     Type
  7249 ;;		None
  7250 ;; Return value:  Size  Location     Type
  7251 ;;                  1    wreg      void 
  7252 ;; Registers used:
  7253 ;;		wreg, fsr0l, fsr0h, status,2, status,0, pclath, btemp1, cstack
  7254 ;; Tracked objects:
  7255 ;;		On entry : 0/0
  7256 ;;		On exit  : 0/0
  7257 ;;		Unchanged: 0/0
  7258 ;; Data sizes:     COMMON   BANK0   BANK1   BANK3   BANK2
  7259 ;;      Params:         0       2       0       0       0
  7260 ;;      Locals:         0       0       0       0       0
  7261 ;;      Temps:          0       2       0       0       0
  7262 ;;      Totals:         0       4       0       0       0
  7263 ;;Total ram usage:        4 bytes
  7264 ;; Hardware stack levels used: 1
  7265 ;; Hardware stack levels required when called: 5
  7266 ;; This function calls:
  7267 ;;		___awdiv
  7268 ;;		___awmod
  7269 ;;		_clcd_print
  7270 ;;		_clcd_putch
  7271 ;;		_display_time
  7272 ;; This function is called by:
  7273 ;;		_main
  7274 ;; This function uses a non-reentrant model
  7275 ;;
  7276                           
  7277     1682                     _display_dashboard:	
  7278                           ;psect for function _display_dashboard
  7279                           
  7280     1682                     l4118:	
  7281                           ;incstack = 0
  7282                           ; Regs used in _display_dashboard: [wreg-fsr0h+status,2+status,0+pclath+btemp1+cstack]
  7283                           
  7284                           
  7285                           ;helper.c: 70:     clcd_print("  TIME    EV  SP", (0x80 + 0));
  7286     1682  30AA               	movlw	low (STR_18| (0+32768))
  7287     1683  1283               	bcf	3,5	;RP0=0, select bank0
  7288     1684  1303               	bcf	3,6	;RP1=0, select bank0
  7289     1685  00C5               	movwf	clcd_print@str
  7290     1686  3085               	movlw	high (STR_18| (0+32768))
  7291     1687  00C6               	movwf	clcd_print@str+1
  7292     1688  3080               	movlw	128
  7293     1689  00C7               	movwf	clcd_print@addr
  7294     168A  160A  118A  24CC  160A  118A  	fcall	_clcd_print
  7295     168F                     l4120:
  7296                           
  7297                           ;helper.c: 71:     display_time();
  7298     168F  160A  118A  26D8  160A  118A  	fcall	_display_time
  7299     1694                     l4122:
  7300                           
  7301                           ;helper.c: 72:     clcd_print(event, (0xC0 + 10));
  7302     1694  1283               	bcf	3,5	;RP0=0, select bank0
  7303     1695  1303               	bcf	3,6	;RP1=0, select bank0
  7304     1696  084B               	movf	display_dashboard@event,w
  7305     1697  00C5               	movwf	clcd_print@str
  7306     1698  3000               	movlw	0
  7307     1699  00C6               	movwf	clcd_print@str+1
  7308     169A  30CA               	movlw	202
  7309     169B  00C7               	movwf	clcd_print@addr
  7310     169C  160A  118A  24CC  160A  118A  	fcall	_clcd_print
  7311                           
  7312                           ;helper.c: 74:     clcd_putch((speed / 10 + '0'), (0xC0 + 14));
  7313     16A1  30CE               	movlw	206
  7314     16A2  1283               	bcf	3,5	;RP0=0, select bank0
  7315     16A3  1303               	bcf	3,6	;RP1=0, select bank0
  7316     16A4  00C9               	movwf	clcd_putch@addr
  7317     16A5  300A               	movlw	10
  7318     16A6  00F3               	movwf	___awdiv@divisor
  7319     16A7  3000               	movlw	0
  7320     16A8  00F4               	movwf	___awdiv@divisor+1
  7321     16A9  084C               	movf	display_dashboard@speed,w
  7322     16AA  00CD               	movwf	??_display_dashboard
  7323     16AB  01CE               	clrf	??_display_dashboard+1
  7324     16AC  084D               	movf	??_display_dashboard,w
  7325     16AD  00F5               	movwf	___awdiv@dividend
  7326     16AE  084E               	movf	??_display_dashboard+1,w
  7327     16AF  00F6               	movwf	___awdiv@dividend+1
  7328     16B0  120A  158A  205F  160A  118A  	fcall	___awdiv
  7329     16B5  0873               	movf	?___awdiv,w
  7330     16B6  3E30               	addlw	48
  7331     16B7  160A  118A  22CD  160A  118A  	fcall	_clcd_putch
  7332                           
  7333                           ;helper.c: 75:     clcd_putch((speed % 10 + '0'), (0xC0 + 15));
  7334     16BC  30CF               	movlw	207
  7335     16BD  1283               	bcf	3,5	;RP0=0, select bank0
  7336     16BE  1303               	bcf	3,6	;RP1=0, select bank0
  7337     16BF  00C9               	movwf	clcd_putch@addr
  7338     16C0  300A               	movlw	10
  7339     16C1  00F3               	movwf	___awmod@divisor
  7340     16C2  3000               	movlw	0
  7341     16C3  00F4               	movwf	___awmod@divisor+1
  7342     16C4  084C               	movf	display_dashboard@speed,w
  7343     16C5  00CD               	movwf	??_display_dashboard
  7344     16C6  01CE               	clrf	??_display_dashboard+1
  7345     16C7  084D               	movf	??_display_dashboard,w
  7346     16C8  00F5               	movwf	___awmod@dividend
  7347     16C9  084E               	movf	??_display_dashboard+1,w
  7348     16CA  00F6               	movwf	___awmod@dividend+1
  7349     16CB  120A  158A  2006  160A  118A  	fcall	___awmod
  7350     16D0  0873               	movf	?___awmod,w
  7351     16D1  3E30               	addlw	48
  7352     16D2  160A  118A  22CD  160A  118A  	fcall	_clcd_putch
  7353     16D7                     l346:
  7354     16D7  0008               	return
  7355     16D8                     __end_of_display_dashboard:
  7356                           
  7357                           	psect	text29
  7358     16D8                     __ptext29:	
  7359 ;; *************** function _display_time *****************
  7360 ;; Defined at:
  7361 ;;		line 52 in file "helper.c"
  7362 ;; Parameters:    Size  Location     Type
  7363 ;;		None
  7364 ;; Auto vars:     Size  Location     Type
  7365 ;;		None
  7366 ;; Return value:  Size  Location     Type
  7367 ;;                  1    wreg      void 
  7368 ;; Registers used:
  7369 ;;		wreg, status,2, status,0, pclath, cstack
  7370 ;; Tracked objects:
  7371 ;;		On entry : 0/0
  7372 ;;		On exit  : 0/0
  7373 ;;		Unchanged: 0/0
  7374 ;; Data sizes:     COMMON   BANK0   BANK1   BANK3   BANK2
  7375 ;;      Params:         0       0       0       0       0
  7376 ;;      Locals:         0       0       0       0       0
  7377 ;;      Temps:          0       0       0       0       0
  7378 ;;      Totals:         0       0       0       0       0
  7379 ;;Total ram usage:        0 bytes
  7380 ;; Hardware stack levels used: 1
  7381 ;; Hardware stack levels required when called: 4
  7382 ;; This function calls:
  7383 ;;		_clcd_putch
  7384 ;;		_get_time
  7385 ;; This function is called by:
  7386 ;;		_display_dashboard
  7387 ;; This function uses a non-reentrant model
  7388 ;;
  7389                           
  7390     16D8                     _display_time:	
  7391                           ;psect for function _display_time
  7392                           
  7393     16D8                     l3868:	
  7394                           ;incstack = 0
  7395                           ; Regs used in _display_time: [wreg+status,2+status,0+pclath+cstack]
  7396                           
  7397                           
  7398                           ;helper.c: 54:     get_time();
  7399     16D8  160A  118A  273A  160A  118A  	fcall	_get_time
  7400                           
  7401                           ;helper.c: 56:     clcd_putch(time[0], (0xC0 + 0));
  7402     16DD  30C0               	movlw	192
  7403     16DE  1283               	bcf	3,5	;RP0=0, select bank0
  7404     16DF  1303               	bcf	3,6	;RP1=0, select bank0
  7405     16E0  00C9               	movwf	clcd_putch@addr
  7406     16E1  1683               	bsf	3,5	;RP0=1, select bank1
  7407     16E2  1303               	bcf	3,6	;RP1=0, select bank1
  7408     16E3  083D               	movf	_time^(0+128),w
  7409     16E4  160A  118A  22CD  160A  118A  	fcall	_clcd_putch
  7410                           
  7411                           ;helper.c: 57:     clcd_putch(time[1], (0xC0 + 1));
  7412     16E9  30C1               	movlw	193
  7413     16EA  1283               	bcf	3,5	;RP0=0, select bank0
  7414     16EB  1303               	bcf	3,6	;RP1=0, select bank0
  7415     16EC  00C9               	movwf	clcd_putch@addr
  7416     16ED  1683               	bsf	3,5	;RP0=1, select bank1
  7417     16EE  1303               	bcf	3,6	;RP1=0, select bank1
  7418     16EF  083E               	movf	(_time^(0+128)+1),w
  7419     16F0  160A  118A  22CD  160A  118A  	fcall	_clcd_putch
  7420                           
  7421                           ;helper.c: 58:     clcd_putch(':', (0xC0 + 2));
  7422     16F5  30C2               	movlw	194
  7423     16F6  1283               	bcf	3,5	;RP0=0, select bank0
  7424     16F7  1303               	bcf	3,6	;RP1=0, select bank0
  7425     16F8  00C9               	movwf	clcd_putch@addr
  7426     16F9  303A               	movlw	58
  7427     16FA  160A  118A  22CD  160A  118A  	fcall	_clcd_putch
  7428                           
  7429                           ;helper.c: 60:     clcd_putch(time[2], (0xC0 + 3));
  7430     16FF  30C3               	movlw	195
  7431     1700  1283               	bcf	3,5	;RP0=0, select bank0
  7432     1701  1303               	bcf	3,6	;RP1=0, select bank0
  7433     1702  00C9               	movwf	clcd_putch@addr
  7434     1703  1683               	bsf	3,5	;RP0=1, select bank1
  7435     1704  1303               	bcf	3,6	;RP1=0, select bank1
  7436     1705  083F               	movf	(_time^(0+128)+2),w
  7437     1706  160A  118A  22CD  160A  118A  	fcall	_clcd_putch
  7438                           
  7439                           ;helper.c: 61:     clcd_putch(time[3], (0xC0 + 4));
  7440     170B  30C4               	movlw	196
  7441     170C  1283               	bcf	3,5	;RP0=0, select bank0
  7442     170D  1303               	bcf	3,6	;RP1=0, select bank0
  7443     170E  00C9               	movwf	clcd_putch@addr
  7444     170F  1683               	bsf	3,5	;RP0=1, select bank1
  7445     1710  1303               	bcf	3,6	;RP1=0, select bank1
  7446     1711  0840               	movf	(_time^(0+128)+3),w
  7447     1712  160A  118A  22CD  160A  118A  	fcall	_clcd_putch
  7448                           
  7449                           ;helper.c: 62:     clcd_putch(':', (0xC0 + 5));
  7450     1717  30C5               	movlw	197
  7451     1718  1283               	bcf	3,5	;RP0=0, select bank0
  7452     1719  1303               	bcf	3,6	;RP1=0, select bank0
  7453     171A  00C9               	movwf	clcd_putch@addr
  7454     171B  303A               	movlw	58
  7455     171C  160A  118A  22CD  160A  118A  	fcall	_clcd_putch
  7456                           
  7457                           ;helper.c: 64:     clcd_putch(time[4], (0xC0 + 6));
  7458     1721  30C6               	movlw	198
  7459     1722  1283               	bcf	3,5	;RP0=0, select bank0
  7460     1723  1303               	bcf	3,6	;RP1=0, select bank0
  7461     1724  00C9               	movwf	clcd_putch@addr
  7462     1725  1683               	bsf	3,5	;RP0=1, select bank1
  7463     1726  1303               	bcf	3,6	;RP1=0, select bank1
  7464     1727  0841               	movf	(_time^(0+128)+4),w
  7465     1728  160A  118A  22CD  160A  118A  	fcall	_clcd_putch
  7466                           
  7467                           ;helper.c: 65:     clcd_putch(time[5], (0xC0 + 7));
  7468     172D  30C7               	movlw	199
  7469     172E  1283               	bcf	3,5	;RP0=0, select bank0
  7470     172F  1303               	bcf	3,6	;RP1=0, select bank0
  7471     1730  00C9               	movwf	clcd_putch@addr
  7472     1731  1683               	bsf	3,5	;RP0=1, select bank1
  7473     1732  1303               	bcf	3,6	;RP1=0, select bank1
  7474     1733  0842               	movf	(_time^(0+128)+5),w
  7475     1734  160A  118A  22CD  160A  118A  	fcall	_clcd_putch
  7476     1739                     l343:
  7477     1739  0008               	return
  7478     173A                     __end_of_display_time:
  7479                           
  7480                           	psect	text30
  7481     173A                     __ptext30:	
  7482 ;; *************** function _get_time *****************
  7483 ;; Defined at:
  7484 ;;		line 33 in file "helper.c"
  7485 ;; Parameters:    Size  Location     Type
  7486 ;;		None
  7487 ;; Auto vars:     Size  Location     Type
  7488 ;;		None
  7489 ;; Return value:  Size  Location     Type
  7490 ;;                  1    wreg      void 
  7491 ;; Registers used:
  7492 ;;		wreg, status,2, status,0, pclath, cstack
  7493 ;; Tracked objects:
  7494 ;;		On entry : 0/0
  7495 ;;		On exit  : 0/0
  7496 ;;		Unchanged: 0/0
  7497 ;; Data sizes:     COMMON   BANK0   BANK1   BANK3   BANK2
  7498 ;;      Params:         0       0       0       0       0
  7499 ;;      Locals:         0       0       0       0       0
  7500 ;;      Temps:          0       1       0       0       0
  7501 ;;      Totals:         0       1       0       0       0
  7502 ;;Total ram usage:        1 bytes
  7503 ;; Hardware stack levels used: 1
  7504 ;; Hardware stack levels required when called: 1
  7505 ;; This function calls:
  7506 ;;		_read_ds1307
  7507 ;; This function is called by:
  7508 ;;		_display_time
  7509 ;;		_log_event
  7510 ;;		_set_time
  7511 ;; This function uses a non-reentrant model
  7512 ;;
  7513                           
  7514     173A                     _get_time:	
  7515                           ;psect for function _get_time
  7516                           
  7517     173A                     l3706:	
  7518                           ;incstack = 0
  7519                           ; Regs used in _get_time: [wreg+status,2+status,0+pclath+cstack]
  7520                           
  7521                           
  7522                           ;helper.c: 35:     clock_reg[0] = read_ds1307(0x02);
  7523     173A  3002               	movlw	2
  7524     173B  160A  118A  2410  160A  118A  	fcall	_read_ds1307
  7525     1740  1283               	bcf	3,5	;RP0=0, select bank0
  7526     1741  1303               	bcf	3,6	;RP1=0, select bank0
  7527     1742  00A0               	movwf	_clock_reg
  7528                           
  7529                           ;helper.c: 36:     clock_reg[1] = read_ds1307(0x01);
  7530     1743  3001               	movlw	1
  7531     1744  160A  118A  2410  160A  118A  	fcall	_read_ds1307
  7532     1749  1283               	bcf	3,5	;RP0=0, select bank0
  7533     174A  1303               	bcf	3,6	;RP1=0, select bank0
  7534     174B  00A1               	movwf	_clock_reg+1
  7535                           
  7536                           ;helper.c: 37:     clock_reg[2] = read_ds1307(0x00);
  7537     174C  3000               	movlw	0
  7538     174D  160A  118A  2410  160A  118A  	fcall	_read_ds1307
  7539     1752  1283               	bcf	3,5	;RP0=0, select bank0
  7540     1753  1303               	bcf	3,6	;RP1=0, select bank0
  7541     1754  00A2               	movwf	_clock_reg+2
  7542     1755                     l3708:
  7543                           
  7544                           ;helper.c: 39:     time[0] = ((clock_reg[0] >> 4) & 0x03) + '0';
  7545     1755  0820               	movf	_clock_reg,w
  7546     1756  00C5               	movwf	??_get_time
  7547     1757  3004               	movlw	4
  7548     1758                     u3385:
  7549     1758  1003               	clrc
  7550     1759  0CC5               	rrf	??_get_time,f
  7551     175A  3EFF               	addlw	-1
  7552     175B  1D03               	skipz
  7553     175C  2F58               	goto	u3385
  7554     175D  0845               	movf	??_get_time,w
  7555     175E  3903               	andlw	3
  7556     175F  3E30               	addlw	48
  7557     1760  1683               	bsf	3,5	;RP0=1, select bank1
  7558     1761  1303               	bcf	3,6	;RP1=0, select bank1
  7559     1762  00BD               	movwf	_time^(0+128)
  7560     1763                     l3710:
  7561                           
  7562                           ;helper.c: 40:     time[1] = (clock_reg[0] & 0x0F) + '0';
  7563     1763  1283               	bcf	3,5	;RP0=0, select bank0
  7564     1764  1303               	bcf	3,6	;RP1=0, select bank0
  7565     1765  0820               	movf	_clock_reg,w
  7566     1766  390F               	andlw	15
  7567     1767  3E30               	addlw	48
  7568     1768  1683               	bsf	3,5	;RP0=1, select bank1
  7569     1769  1303               	bcf	3,6	;RP1=0, select bank1
  7570     176A  00BE               	movwf	(_time^(0+128)+1)
  7571     176B                     l3712:
  7572                           
  7573                           ;helper.c: 42:     time[2] = ((clock_reg[1] >> 4) & 0x07) + '0';
  7574     176B  1283               	bcf	3,5	;RP0=0, select bank0
  7575     176C  1303               	bcf	3,6	;RP1=0, select bank0
  7576     176D  0821               	movf	_clock_reg+1,w
  7577     176E  00C5               	movwf	??_get_time
  7578     176F  3004               	movlw	4
  7579     1770                     u3395:
  7580     1770  1003               	clrc
  7581     1771  0CC5               	rrf	??_get_time,f
  7582     1772  3EFF               	addlw	-1
  7583     1773  1D03               	skipz
  7584     1774  2F70               	goto	u3395
  7585     1775  0845               	movf	??_get_time,w
  7586     1776  3907               	andlw	7
  7587     1777  3E30               	addlw	48
  7588     1778  1683               	bsf	3,5	;RP0=1, select bank1
  7589     1779  1303               	bcf	3,6	;RP1=0, select bank1
  7590     177A  00BF               	movwf	(_time^(0+128)+2)
  7591     177B                     l3714:
  7592                           
  7593                           ;helper.c: 43:     time[3] = (clock_reg[1] & 0x0F) + '0';
  7594     177B  1283               	bcf	3,5	;RP0=0, select bank0
  7595     177C  1303               	bcf	3,6	;RP1=0, select bank0
  7596     177D  0821               	movf	_clock_reg+1,w
  7597     177E  390F               	andlw	15
  7598     177F  3E30               	addlw	48
  7599     1780  1683               	bsf	3,5	;RP0=1, select bank1
  7600     1781  1303               	bcf	3,6	;RP1=0, select bank1
  7601     1782  00C0               	movwf	(_time^(0+128)+3)
  7602     1783                     l3716:
  7603                           
  7604                           ;helper.c: 45:     time[4] = ((clock_reg[2] >> 4) & 0x07) + '0';
  7605     1783  1283               	bcf	3,5	;RP0=0, select bank0
  7606     1784  1303               	bcf	3,6	;RP1=0, select bank0
  7607     1785  0822               	movf	_clock_reg+2,w
  7608     1786  00C5               	movwf	??_get_time
  7609     1787  3004               	movlw	4
  7610     1788                     u3405:
  7611     1788  1003               	clrc
  7612     1789  0CC5               	rrf	??_get_time,f
  7613     178A  3EFF               	addlw	-1
  7614     178B  1D03               	skipz
  7615     178C  2F88               	goto	u3405
  7616     178D  0845               	movf	??_get_time,w
  7617     178E  3907               	andlw	7
  7618     178F  3E30               	addlw	48
  7619     1790  1683               	bsf	3,5	;RP0=1, select bank1
  7620     1791  1303               	bcf	3,6	;RP1=0, select bank1
  7621     1792  00C1               	movwf	(_time^(0+128)+4)
  7622     1793                     l3718:
  7623                           
  7624                           ;helper.c: 46:     time[5] = (clock_reg[2] & 0x0F) + '0';
  7625     1793  1283               	bcf	3,5	;RP0=0, select bank0
  7626     1794  1303               	bcf	3,6	;RP1=0, select bank0
  7627     1795  0822               	movf	_clock_reg+2,w
  7628     1796  390F               	andlw	15
  7629     1797  3E30               	addlw	48
  7630     1798  1683               	bsf	3,5	;RP0=1, select bank1
  7631     1799  1303               	bcf	3,6	;RP1=0, select bank1
  7632     179A  00C2               	movwf	(_time^(0+128)+5)
  7633     179B                     l3720:
  7634                           
  7635                           ;helper.c: 48:     time[6] = '\0';
  7636     179B  01C3               	clrf	(_time^(0+128)+6)
  7637     179C                     l340:
  7638     179C  0008               	return
  7639     179D                     __end_of_get_time:
  7640                           
  7641                           	psect	text31
  7642     1410                     __ptext31:	
  7643 ;; *************** function _read_ds1307 *****************
  7644 ;; Defined at:
  7645 ;;		line 22 in file "ds1307.c"
  7646 ;; Parameters:    Size  Location     Type
  7647 ;;  addr            1    wreg     unsigned char 
  7648 ;; Auto vars:     Size  Location     Type
  7649 ;;  addr            1    5[COMMON] unsigned char 
  7650 ;;  data            1    6[COMMON] unsigned char 
  7651 ;; Return value:  Size  Location     Type
  7652 ;;                  1    wreg      unsigned char 
  7653 ;; Registers used:
  7654 ;;		wreg, status,2, status,0, pclath, cstack
  7655 ;; Tracked objects:
  7656 ;;		On entry : 0/0
  7657 ;;		On exit  : 0/0
  7658 ;;		Unchanged: 0/0
  7659 ;; Data sizes:     COMMON   BANK0   BANK1   BANK3   BANK2
  7660 ;;      Params:         0       0       0       0       0
  7661 ;;      Locals:         2       0       0       0       0
  7662 ;;      Temps:          0       0       0       0       0
  7663 ;;      Totals:         2       0       0       0       0
  7664 ;;Total ram usage:        2 bytes
  7665 ;; Hardware stack levels used: 1
  7666 ;; Hardware stack levels required when called: 1
  7667 ;; This function calls:
  7668 ;;		_i2c_read
  7669 ;;		_i2c_rep_start
  7670 ;;		_i2c_start
  7671 ;;		_i2c_stop
  7672 ;;		_i2c_write
  7673 ;; This function is called by:
  7674 ;;		_init_ds1307
  7675 ;;		_get_time
  7676 ;; This function uses a non-reentrant model
  7677 ;;
  7678                           
  7679     1410                     _read_ds1307:	
  7680                           ;psect for function _read_ds1307
  7681                           
  7682                           
  7683                           ;incstack = 0
  7684                           ; Regs used in _read_ds1307: [wreg+status,2+status,0+pclath+cstack]
  7685                           ;read_ds1307@addr stored from wreg
  7686     1410  00F5               	movwf	read_ds1307@addr
  7687     1411                     l3656:
  7688                           
  7689                           ;ds1307.c: 23: ;ds1307.c: 25:     i2c_write(0b11010000);
  7690     1411  160A  118A  222E  160A  118A  	fcall	_i2c_start
  7691                           
  7692                           ;ds1307.c: 26:     i2c_write(addr);
  7693     1416  30D0               	movlw	208
  7694     1417  160A  118A  2253  160A  118A  	fcall	_i2c_write
  7695                           
  7696                           ;ds1307.c: 27:     i2c_write(data);
  7697     141C  0875               	movf	read_ds1307@addr,w
  7698     141D  160A  118A  2253  160A  118A  	fcall	_i2c_write
  7699                           
  7700                           ;ds1307.c: 28:     i2c_stop();
  7701     1422  160A  118A  2240  160A  118A  	fcall	_i2c_rep_start
  7702                           
  7703                           ;ds1307.c: 29: 
  7704     1427  30D1               	movlw	209
  7705     1428  160A  118A  2253  160A  118A  	fcall	_i2c_write
  7706                           
  7707                           ;ds1307.c: 30: }
  7708     142D  3000               	movlw	0
  7709     142E  160A  118A  2336  160A  118A  	fcall	_i2c_read
  7710     1433  00F6               	movwf	read_ds1307@data
  7711     1434  160A  118A  2237  160A  118A  	fcall	_i2c_stop
  7712     1439                     l3658:
  7713     1439  0876               	movf	read_ds1307@data,w
  7714     143A                     l55:
  7715     143A  0008               	return
  7716     143B                     __end_of_read_ds1307:
  7717                           
  7718                           	psect	text32
  7719     14FF                     __ptext32:	
  7720 ;; *************** function _clear_log *****************
  7721 ;; Defined at:
  7722 ;;		line 306 in file "helper.c"
  7723 ;; Parameters:    Size  Location     Type
  7724 ;;  reset_flag      1    wreg     unsigned char 
  7725 ;; Auto vars:     Size  Location     Type
  7726 ;;  reset_flag      1    6[BANK0 ] unsigned char 
  7727 ;; Return value:  Size  Location     Type
  7728 ;;                  1    wreg      void 
  7729 ;; Registers used:
  7730 ;;		wreg, fsr0l, fsr0h, status,2, status,0, pclath, btemp1, cstack
  7731 ;; Tracked objects:
  7732 ;;		On entry : 0/0
  7733 ;;		On exit  : 0/0
  7734 ;;		Unchanged: 0/0
  7735 ;; Data sizes:     COMMON   BANK0   BANK1   BANK3   BANK2
  7736 ;;      Params:         0       0       0       0       0
  7737 ;;      Locals:         0       1       0       0       0
  7738 ;;      Temps:          0       3       0       0       0
  7739 ;;      Totals:         0       4       0       0       0
  7740 ;;Total ram usage:        4 bytes
  7741 ;; Hardware stack levels used: 1
  7742 ;; Hardware stack levels required when called: 2
  7743 ;; This function calls:
  7744 ;;		_clcd_print
  7745 ;; This function is called by:
  7746 ;;		_main
  7747 ;; This function uses a non-reentrant model
  7748 ;;
  7749                           
  7750     14FF                     _clear_log:	
  7751                           ;psect for function _clear_log
  7752                           
  7753                           
  7754                           ;incstack = 0
  7755                           ; Regs used in _clear_log: [wreg-fsr0h+status,2+status,0+pclath+btemp1+cstack]
  7756                           ;clear_log@reset_flag stored from wreg
  7757     14FF  1283               	bcf	3,5	;RP0=0, select bank0
  7758     1500  1303               	bcf	3,6	;RP1=0, select bank0
  7759     1501  00CB               	movwf	clear_log@reset_flag
  7760     1502                     l4332:
  7761                           
  7762                           ;helper.c: 307:     if (reset_flag == 0x15) {
  7763     1502  3015               	movlw	21
  7764     1503  064B               	xorwf	clear_log@reset_flag,w
  7765     1504  1D03               	btfss	3,2
  7766     1505  2D07               	goto	u4291
  7767     1506  2D08               	goto	u4290
  7768     1507                     u4291:
  7769     1507  2D32               	goto	l415
  7770     1508                     u4290:
  7771     1508                     l4334:
  7772                           
  7773                           ;helper.c: 308:         log_count = -1;
  7774     1508  30FF               	movlw	-1
  7775     1509  00E4               	movwf	_log_count
  7776     150A                     l4336:
  7777                           
  7778                           ;helper.c: 309:         pos = 0;
  7779     150A  01B5               	clrf	_pos
  7780     150B                     l4338:
  7781                           
  7782                           ;helper.c: 310:         clcd_print("  LOGS CLEARED  ", (0x80 + 0));
  7783     150B  3022               	movlw	low (STR_29| (0+32768))
  7784     150C  00C5               	movwf	clcd_print@str
  7785     150D  3085               	movlw	high (STR_29| (0+32768))
  7786     150E  00C6               	movwf	clcd_print@str+1
  7787     150F  3080               	movlw	128
  7788     1510  00C7               	movwf	clcd_print@addr
  7789     1511  160A  118A  24CC  160A  118A  	fcall	_clcd_print
  7790     1516                     l4340:
  7791                           
  7792                           ;helper.c: 311:         clcd_print("  SUCCESSFULLY  ", (0xC0 + 0));
  7793     1516  3033               	movlw	low (STR_30| (0+32768))
  7794     1517  1283               	bcf	3,5	;RP0=0, select bank0
  7795     1518  1303               	bcf	3,6	;RP1=0, select bank0
  7796     1519  00C5               	movwf	clcd_print@str
  7797     151A  3085               	movlw	high (STR_30| (0+32768))
  7798     151B  00C6               	movwf	clcd_print@str+1
  7799     151C  30C0               	movlw	192
  7800     151D  00C7               	movwf	clcd_print@addr
  7801     151E  160A  118A  24CC  160A  118A  	fcall	_clcd_print
  7802     1523                     l4342:
  7803                           
  7804                           ;helper.c: 312:         _delay((unsigned long)((1000)*(20000000/4000.0)));
  7805     1523  301A               	movlw	26
  7806     1524  1283               	bcf	3,5	;RP0=0, select bank0
  7807     1525  1303               	bcf	3,6	;RP1=0, select bank0
  7808     1526  00CA               	movwf	??_clear_log+2
  7809     1527  305E               	movlw	94
  7810     1528  00C9               	movwf	??_clear_log+1
  7811     1529  306D               	movlw	109
  7812     152A  00C8               	movwf	??_clear_log
  7813     152B                     u4997:
  7814     152B  0BC8               	decfsz	??_clear_log,f
  7815     152C  2D2B               	goto	u4997
  7816     152D  0BC9               	decfsz	??_clear_log+1,f
  7817     152E  2D2B               	goto	u4997
  7818     152F  0BCA               	decfsz	??_clear_log+2,f
  7819     1530  2D2B               	goto	u4997
  7820     1531  2D32               	nop2
  7821     1532                     l415:
  7822     1532  0008               	return
  7823     1533                     __end_of_clear_log:
  7824                           
  7825                           	psect	text33
  7826     0CB8                     __ptext33:	
  7827 ;; *************** function _check_password *****************
  7828 ;; Defined at:
  7829 ;;		line 103 in file "helper.c"
  7830 ;; Parameters:    Size  Location     Type
  7831 ;;  key             1    wreg     unsigned char 
  7832 ;;  reset_flag      1    6[BANK0 ] unsigned char 
  7833 ;; Auto vars:     Size  Location     Type
  7834 ;;  key             1   10[BANK0 ] unsigned char 
  7835 ;;  j               1   11[BANK0 ] unsigned char 
  7836 ;; Return value:  Size  Location     Type
  7837 ;;                  1    wreg      unsigned char 
  7838 ;; Registers used:
  7839 ;;		wreg, fsr0l, fsr0h, status,2, status,0, pclath, btemp1, cstack
  7840 ;; Tracked objects:
  7841 ;;		On entry : 0/0
  7842 ;;		On exit  : 0/0
  7843 ;;		Unchanged: 0/0
  7844 ;; Data sizes:     COMMON   BANK0   BANK1   BANK3   BANK2
  7845 ;;      Params:         0       1       0       0       0
  7846 ;;      Locals:         0       2       0       0       0
  7847 ;;      Temps:          0       3       0       0       0
  7848 ;;      Totals:         0       6       0       0       0
  7849 ;;Total ram usage:        6 bytes
  7850 ;; Hardware stack levels used: 1
  7851 ;; Hardware stack levels required when called: 4
  7852 ;; This function calls:
  7853 ;;		___awdiv
  7854 ;;		___awmod
  7855 ;;		_clcd_print
  7856 ;;		_clcd_putch
  7857 ;;		_clcd_write
  7858 ;;		_clear_screen
  7859 ;;		_ext_eeprom_24C02_read
  7860 ;;		_strncmp
  7861 ;; This function is called by:
  7862 ;;		_main
  7863 ;; This function uses a non-reentrant model
  7864 ;;
  7865                           
  7866     0CB8                     _check_password:	
  7867                           ;psect for function _check_password
  7868                           
  7869                           
  7870                           ;incstack = 0
  7871                           ; Regs used in _check_password: [wreg-fsr0h+status,2+status,0+pclath+btemp1+cstack]
  7872                           ;check_password@key stored from wreg
  7873     0CB8  1283               	bcf	3,5	;RP0=0, select bank0
  7874     0CB9  1303               	bcf	3,6	;RP1=0, select bank0
  7875     0CBA  00CF               	movwf	check_password@key
  7876     0CBB                     l4124:
  7877                           
  7878                           ;helper.c: 104:     static unsigned char user_pass[4], saved_pass[4];;helper.c: 105:    
      +                           static unsigned char attempts, i;;helper.c: 107:     if (reset_flag == 0x12) {
  7879     0CBB  3012               	movlw	18
  7880     0CBC  064B               	xorwf	check_password@reset_flag,w
  7881     0CBD  1D03               	btfss	3,2
  7882     0CBE  2CC0               	goto	u4051
  7883     0CBF  2CC1               	goto	u4050
  7884     0CC0                     u4051:
  7885     0CC0  2CCB               	goto	l4132
  7886     0CC1                     u4050:
  7887     0CC1                     l4126:
  7888                           
  7889                           ;helper.c: 108:         attempts = 3;
  7890     0CC1  3003               	movlw	3
  7891     0CC2  00B2               	movwf	check_password@attempts
  7892     0CC3                     l4128:
  7893                           
  7894                           ;helper.c: 109:         i = 0;
  7895     0CC3  01B1               	clrf	check_password@i
  7896                           
  7897                           ;helper.c: 111:         user_pass[0] = '\0';
  7898     0CC4  01C1               	clrf	check_password@user_pass
  7899                           
  7900                           ;helper.c: 112:         user_pass[1] = '\0';
  7901     0CC5  01C2               	clrf	check_password@user_pass+1
  7902                           
  7903                           ;helper.c: 113:         user_pass[2] = '\0';
  7904     0CC6  01C3               	clrf	check_password@user_pass+2
  7905                           
  7906                           ;helper.c: 114:         user_pass[3] = '\0';
  7907     0CC7  01C4               	clrf	check_password@user_pass+3
  7908     0CC8                     l4130:
  7909                           
  7910                           ;helper.c: 116:         return_time = 5;
  7911     0CC8  3005               	movlw	5
  7912     0CC9  00B4               	movwf	_return_time
  7913                           
  7914                           ;helper.c: 118:         key = 0;
  7915     0CCA  01CF               	clrf	check_password@key
  7916     0CCB                     l4132:
  7917                           
  7918                           ;helper.c: 122:     if (key == 0x37 && i < 4) {
  7919     0CCB  3037               	movlw	55
  7920     0CCC  064F               	xorwf	check_password@key,w
  7921     0CCD  1D03               	btfss	3,2
  7922     0CCE  2CD0               	goto	u4061
  7923     0CCF  2CD1               	goto	u4060
  7924     0CD0                     u4061:
  7925     0CD0  2CED               	goto	l4144
  7926     0CD1                     u4060:
  7927     0CD1                     l4134:
  7928     0CD1  3004               	movlw	4
  7929     0CD2  0231               	subwf	check_password@i,w
  7930     0CD3  1803               	skipnc
  7931     0CD4  2CD6               	goto	u4071
  7932     0CD5  2CD7               	goto	u4070
  7933     0CD6                     u4071:
  7934     0CD6  2CED               	goto	l4144
  7935     0CD7                     u4070:
  7936     0CD7                     l4136:
  7937                           
  7938                           ;helper.c: 123:         user_pass[i] = '1';
  7939     0CD7  0831               	movf	check_password@i,w
  7940     0CD8  3E41               	addlw	(low (check_password@user_pass| 0))& (0+255)
  7941     0CD9  0084               	movwf	4
  7942     0CDA  3031               	movlw	49
  7943     0CDB  1383               	bcf	3,7	;select IRP bank0
  7944     0CDC  0080               	movwf	0
  7945     0CDD                     l4138:
  7946                           
  7947                           ;helper.c: 124:         i++;
  7948     0CDD  3001               	movlw	1
  7949     0CDE  07B1               	addwf	check_password@i,f
  7950     0CDF                     l4140:
  7951                           
  7952                           ;helper.c: 125:         clcd_putch('*', (0xC0 + i + 4));
  7953     0CDF  0831               	movf	check_password@i,w
  7954     0CE0  3EC4               	addlw	196
  7955     0CE1  00C9               	movwf	clcd_putch@addr
  7956     0CE2  302A               	movlw	42
  7957     0CE3  160A  118A  22CD  120A  158A  	fcall	_clcd_putch
  7958     0CE8                     l4142:
  7959                           
  7960                           ;helper.c: 126:         return_time = 5;
  7961     0CE8  3005               	movlw	5
  7962     0CE9  1283               	bcf	3,5	;RP0=0, select bank0
  7963     0CEA  1303               	bcf	3,6	;RP1=0, select bank0
  7964     0CEB  00B4               	movwf	_return_time
  7965                           
  7966                           ;helper.c: 127:     } else if (key == 0x2F && i < 4) {
  7967     0CEC  2D0B               	goto	l4156
  7968     0CED                     l4144:
  7969     0CED  302F               	movlw	47
  7970     0CEE  064F               	xorwf	check_password@key,w
  7971     0CEF  1D03               	btfss	3,2
  7972     0CF0  2CF2               	goto	u4081
  7973     0CF1  2CF3               	goto	u4080
  7974     0CF2                     u4081:
  7975     0CF2  2D0B               	goto	l4156
  7976     0CF3                     u4080:
  7977     0CF3                     l4146:
  7978     0CF3  3004               	movlw	4
  7979     0CF4  0231               	subwf	check_password@i,w
  7980     0CF5  1803               	skipnc
  7981     0CF6  2CF8               	goto	u4091
  7982     0CF7  2CF9               	goto	u4090
  7983     0CF8                     u4091:
  7984     0CF8  2D0B               	goto	l4156
  7985     0CF9                     u4090:
  7986     0CF9                     l4148:
  7987                           
  7988                           ;helper.c: 128:         user_pass[i] = '0';
  7989     0CF9  0831               	movf	check_password@i,w
  7990     0CFA  3E41               	addlw	(low (check_password@user_pass| 0))& (0+255)
  7991     0CFB  0084               	movwf	4
  7992     0CFC  3030               	movlw	48
  7993     0CFD  1383               	bcf	3,7	;select IRP bank0
  7994     0CFE  0080               	movwf	0
  7995     0CFF                     l4150:
  7996                           
  7997                           ;helper.c: 129:         i++;
  7998     0CFF  3001               	movlw	1
  7999     0D00  07B1               	addwf	check_password@i,f
  8000     0D01                     l4152:
  8001                           
  8002                           ;helper.c: 130:         clcd_putch('*', (0xC0 + i + 4));
  8003     0D01  0831               	movf	check_password@i,w
  8004     0D02  3EC4               	addlw	196
  8005     0D03  00C9               	movwf	clcd_putch@addr
  8006     0D04  302A               	movlw	42
  8007     0D05  160A  118A  22CD  120A  158A  	fcall	_clcd_putch
  8008     0D0A  2CE8               	goto	l4142
  8009     0D0B                     l4156:
  8010                           
  8011                           ;helper.c: 134:     if (return_time == 0) {
  8012     0D0B  0834               	movf	_return_time,w
  8013     0D0C  1D03               	btfss	3,2
  8014     0D0D  2D0F               	goto	u4101
  8015     0D0E  2D10               	goto	u4100
  8016     0D0F                     u4101:
  8017     0D0F  2D12               	goto	l4162
  8018     0D10                     u4100:
  8019     0D10                     l4158:
  8020                           
  8021                           ;helper.c: 135:         return 0xA1;
  8022     0D10  30A1               	movlw	161
  8023     0D11  2E54               	goto	l367
  8024     0D12                     l4162:
  8025                           
  8026                           ;helper.c: 139:     if (i == 4) {
  8027     0D12  3004               	movlw	4
  8028     0D13  0631               	xorwf	check_password@i,w
  8029     0D14  1D03               	btfss	3,2
  8030     0D15  2D17               	goto	u4111
  8031     0D16  2D18               	goto	u4110
  8032     0D17                     u4111:
  8033     0D17  2E54               	goto	l367
  8034     0D18                     u4110:
  8035     0D18                     l4164:
  8036                           
  8037                           ;helper.c: 141:         for(unsigned char j = 0; j < 4; j++)
  8038     0D18  01D0               	clrf	check_password@j
  8039     0D19                     l4170:
  8040                           
  8041                           ;helper.c: 142:         {;helper.c: 143:             saved_pass[j] = ext_eeprom_24C02_re
      +                          ad(j);
  8042     0D19  0850               	movf	check_password@j,w
  8043     0D1A  3EC4               	addlw	(low (check_password@saved_pass| 0))& (0+255)
  8044     0D1B  0084               	movwf	4
  8045     0D1C  0850               	movf	check_password@j,w
  8046     0D1D  160A  118A  23E5  120A  158A  	fcall	_ext_eeprom_24C02_read
  8047     0D22  1383               	bcf	3,7	;select IRP bank1
  8048     0D23  0080               	movwf	0
  8049     0D24                     l4172:
  8050                           
  8051                           ;helper.c: 144:         }
  8052     0D24  3001               	movlw	1
  8053     0D25  1283               	bcf	3,5	;RP0=0, select bank0
  8054     0D26  1303               	bcf	3,6	;RP1=0, select bank0
  8055     0D27  07D0               	addwf	check_password@j,f
  8056     0D28                     l4174:
  8057     0D28  3004               	movlw	4
  8058     0D29  0250               	subwf	check_password@j,w
  8059     0D2A  1C03               	skipc
  8060     0D2B  2D2D               	goto	u4121
  8061     0D2C  2D2E               	goto	u4120
  8062     0D2D                     u4121:
  8063     0D2D  2D19               	goto	l4170
  8064     0D2E                     u4120:
  8065     0D2E                     l4176:
  8066                           
  8067                           ;helper.c: 146:         if ((strncmp(user_pass, saved_pass, 4)) == 0) {
  8068     0D2E  3041               	movlw	(low (check_password@user_pass| 0))& (0+255)
  8069     0D2F  00F3               	movwf	strncmp@l
  8070     0D30  30C4               	movlw	(low (check_password@saved_pass| 0))& (0+255)
  8071     0D31  00F4               	movwf	strncmp@r
  8072     0D32  3004               	movlw	4
  8073     0D33  00F5               	movwf	strncmp@n
  8074     0D34  3000               	movlw	0
  8075     0D35  00F6               	movwf	strncmp@n+1
  8076     0D36  160A  118A  25E3  120A  158A  	fcall	_strncmp
  8077     0D3B  0873               	movf	?_strncmp,w
  8078     0D3C  0474               	iorwf	?_strncmp+1,w
  8079     0D3D  1D03               	btfss	3,2
  8080     0D3E  2D40               	goto	u4131
  8081     0D3F  2D41               	goto	u4130
  8082     0D40                     u4131:
  8083     0D40  2D70               	goto	l4194
  8084     0D41                     u4130:
  8085     0D41                     l4178:
  8086                           
  8087                           ;helper.c: 147:             clear_screen();
  8088     0D41  160A  118A  2281  120A  158A  	fcall	_clear_screen
  8089                           
  8090                           ;helper.c: 148:             clcd_write(0x0C, 0);
  8091     0D46  01F3               	clrf	clcd_write@mode
  8092     0D47  300C               	movlw	12
  8093     0D48  160A  118A  2316  120A  158A  	fcall	_clcd_write
  8094     0D4D                     l4180:
  8095                           
  8096                           ;helper.c: 149:             clcd_print("LOGIN SUCCESS", (0x80 + 0));
  8097     0D4D  3077               	movlw	low (STR_19| (0+32768))
  8098     0D4E  1283               	bcf	3,5	;RP0=0, select bank0
  8099     0D4F  1303               	bcf	3,6	;RP1=0, select bank0
  8100     0D50  00C5               	movwf	clcd_print@str
  8101     0D51  3086               	movlw	high (STR_19| (0+32768))
  8102     0D52  00C6               	movwf	clcd_print@str+1
  8103     0D53  3080               	movlw	128
  8104     0D54  00C7               	movwf	clcd_print@addr
  8105     0D55  160A  118A  24CC  120A  158A  	fcall	_clcd_print
  8106     0D5A                     l4182:
  8107                           
  8108                           ;helper.c: 150:             _delay((unsigned long)((1000)*(20000000/4000.0)));
  8109     0D5A  301A               	movlw	26
  8110     0D5B  1283               	bcf	3,5	;RP0=0, select bank0
  8111     0D5C  1303               	bcf	3,6	;RP1=0, select bank0
  8112     0D5D  00CE               	movwf	??_check_password+2
  8113     0D5E  305E               	movlw	94
  8114     0D5F  00CD               	movwf	??_check_password+1
  8115     0D60  306D               	movlw	109
  8116     0D61  00CC               	movwf	??_check_password
  8117     0D62                     u5007:
  8118     0D62  0BCC               	decfsz	??_check_password,f
  8119     0D63  2D62               	goto	u5007
  8120     0D64  0BCD               	decfsz	??_check_password+1,f
  8121     0D65  2D62               	goto	u5007
  8122     0D66  0BCE               	decfsz	??_check_password+2,f
  8123     0D67  2D62               	goto	u5007
  8124     0D68  2D69               	nop2
  8125     0D69                     l4184:
  8126                           
  8127                           ;helper.c: 151:             TMR2ON = 0;
  8128     0D69  1283               	bcf	3,5	;RP0=0, select bank0
  8129     0D6A  1303               	bcf	3,6	;RP1=0, select bank0
  8130     0D6B  1112               	bcf	18,2	;volatile
  8131     0D6C                     l4186:
  8132                           
  8133                           ;helper.c: 152:             return_time = 5;
  8134     0D6C  3005               	movlw	5
  8135     0D6D  00B4               	movwf	_return_time
  8136     0D6E                     l4188:
  8137                           
  8138                           ;helper.c: 153:             return 0xA0;
  8139     0D6E  30A0               	movlw	160
  8140     0D6F  2E54               	goto	l367
  8141     0D70                     l4194:
  8142                           
  8143                           ;helper.c: 155:             attempts--;
  8144     0D70  3001               	movlw	1
  8145     0D71  1283               	bcf	3,5	;RP0=0, select bank0
  8146     0D72  1303               	bcf	3,6	;RP1=0, select bank0
  8147     0D73  02B2               	subwf	check_password@attempts,f
  8148                           
  8149                           ;helper.c: 156:             if (attempts == 0)
  8150     0D74  0832               	movf	check_password@attempts,w
  8151     0D75  1D03               	btfss	3,2
  8152     0D76  2D78               	goto	u4141
  8153     0D77  2D79               	goto	u4140
  8154     0D78                     u4141:
  8155     0D78  2DEF               	goto	l4212
  8156     0D79                     u4140:
  8157     0D79                     l4196:
  8158                           
  8159                           ;helper.c: 157:             {;helper.c: 158:                 clear_screen();
  8160     0D79  160A  118A  2281  120A  158A  	fcall	_clear_screen
  8161                           
  8162                           ;helper.c: 159:                 clcd_write(0x0C, 0);
  8163     0D7E  01F3               	clrf	clcd_write@mode
  8164     0D7F  300C               	movlw	12
  8165     0D80  160A  118A  2316  120A  158A  	fcall	_clcd_write
  8166     0D85                     l4198:
  8167                           
  8168                           ;helper.c: 160:                 clcd_print("You are blocked", (0x80 + 0));
  8169     0D85  30FE               	movlw	low (STR_20| (0+32768))
  8170     0D86  1283               	bcf	3,5	;RP0=0, select bank0
  8171     0D87  1303               	bcf	3,6	;RP1=0, select bank0
  8172     0D88  00C5               	movwf	clcd_print@str
  8173     0D89  3085               	movlw	high (STR_20| (0+32768))
  8174     0D8A  00C6               	movwf	clcd_print@str+1
  8175     0D8B  3080               	movlw	128
  8176     0D8C  00C7               	movwf	clcd_print@addr
  8177     0D8D  160A  118A  24CC  120A  158A  	fcall	_clcd_print
  8178     0D92                     l4200:
  8179                           
  8180                           ;helper.c: 161:                 clcd_print("wait for ", (0xC0 + 0));
  8181     0D92  3092               	movlw	low (STR_21| (0+32768))
  8182     0D93  1283               	bcf	3,5	;RP0=0, select bank0
  8183     0D94  1303               	bcf	3,6	;RP1=0, select bank0
  8184     0D95  00C5               	movwf	clcd_print@str
  8185     0D96  3086               	movlw	high (STR_21| (0+32768))
  8186     0D97  00C6               	movwf	clcd_print@str+1
  8187     0D98  30C0               	movlw	192
  8188     0D99  00C7               	movwf	clcd_print@addr
  8189     0D9A  160A  118A  24CC  120A  158A  	fcall	_clcd_print
  8190     0D9F                     l4202:
  8191                           
  8192                           ;helper.c: 162:                 wait_time = 60;
  8193     0D9F  303C               	movlw	60
  8194     0DA0  1283               	bcf	3,5	;RP0=0, select bank0
  8195     0DA1  1303               	bcf	3,6	;RP1=0, select bank0
  8196     0DA2  00B3               	movwf	_wait_time
  8197                           
  8198                           ;helper.c: 163:                 while (wait_time != 0) {
  8199     0DA3  2DD8               	goto	l4206
  8200     0DA4                     l4204:
  8201                           
  8202                           ;helper.c: 164:                     clcd_putch((wait_time / 10 + '0'), (0xC0 + 10));
  8203     0DA4  30CA               	movlw	202
  8204     0DA5  00C9               	movwf	clcd_putch@addr
  8205     0DA6  300A               	movlw	10
  8206     0DA7  00F3               	movwf	___awdiv@divisor
  8207     0DA8  3000               	movlw	0
  8208     0DA9  00F4               	movwf	___awdiv@divisor+1
  8209     0DAA  0833               	movf	_wait_time,w
  8210     0DAB  00CC               	movwf	??_check_password
  8211     0DAC  01CD               	clrf	??_check_password+1
  8212     0DAD  084C               	movf	??_check_password,w
  8213     0DAE  00F5               	movwf	___awdiv@dividend
  8214     0DAF  084D               	movf	??_check_password+1,w
  8215     0DB0  00F6               	movwf	___awdiv@dividend+1
  8216     0DB1  120A  158A  205F  120A  158A  	fcall	___awdiv
  8217     0DB6  0873               	movf	?___awdiv,w
  8218     0DB7  3E30               	addlw	48
  8219     0DB8  160A  118A  22CD  120A  158A  	fcall	_clcd_putch
  8220                           
  8221                           ;helper.c: 165:                     clcd_putch((wait_time % 10 + '0'), (0xC0 + 11));
  8222     0DBD  30CB               	movlw	203
  8223     0DBE  1283               	bcf	3,5	;RP0=0, select bank0
  8224     0DBF  1303               	bcf	3,6	;RP1=0, select bank0
  8225     0DC0  00C9               	movwf	clcd_putch@addr
  8226     0DC1  300A               	movlw	10
  8227     0DC2  00F3               	movwf	___awmod@divisor
  8228     0DC3  3000               	movlw	0
  8229     0DC4  00F4               	movwf	___awmod@divisor+1
  8230     0DC5  0833               	movf	_wait_time,w
  8231     0DC6  00CC               	movwf	??_check_password
  8232     0DC7  01CD               	clrf	??_check_password+1
  8233     0DC8  084C               	movf	??_check_password,w
  8234     0DC9  00F5               	movwf	___awmod@dividend
  8235     0DCA  084D               	movf	??_check_password+1,w
  8236     0DCB  00F6               	movwf	___awmod@dividend+1
  8237     0DCC  120A  158A  2006  120A  158A  	fcall	___awmod
  8238     0DD1  0873               	movf	?___awmod,w
  8239     0DD2  3E30               	addlw	48
  8240     0DD3  160A  118A  22CD  120A  158A  	fcall	_clcd_putch
  8241     0DD8                     l4206:
  8242                           
  8243                           ;helper.c: 163:                 while (wait_time != 0) {
  8244     0DD8  1283               	bcf	3,5	;RP0=0, select bank0
  8245     0DD9  1303               	bcf	3,6	;RP1=0, select bank0
  8246     0DDA  0833               	movf	_wait_time,w
  8247     0DDB  1D03               	btfss	3,2
  8248     0DDC  2DDE               	goto	u4151
  8249     0DDD  2DDF               	goto	u4150
  8250     0DDE                     u4151:
  8251     0DDE  2DA4               	goto	l4204
  8252     0DDF                     u4150:
  8253     0DDF                     l4208:
  8254                           
  8255                           ;helper.c: 167:                 clcd_print("secs", (0xC0 + 13));
  8256     0DDF  30B8               	movlw	low (STR_22| (0+32768))
  8257     0DE0  00C5               	movwf	clcd_print@str
  8258     0DE1  3086               	movlw	high (STR_22| (0+32768))
  8259     0DE2  00C6               	movwf	clcd_print@str+1
  8260     0DE3  30CD               	movlw	205
  8261     0DE4  00C7               	movwf	clcd_print@addr
  8262     0DE5  160A  118A  24CC  120A  158A  	fcall	_clcd_print
  8263     0DEA                     l4210:
  8264                           
  8265                           ;helper.c: 168:                 attempts = 3;
  8266     0DEA  3003               	movlw	3
  8267     0DEB  1283               	bcf	3,5	;RP0=0, select bank0
  8268     0DEC  1303               	bcf	3,6	;RP1=0, select bank0
  8269     0DED  00B2               	movwf	check_password@attempts
  8270                           
  8271                           ;helper.c: 169:             } else {
  8272     0DEE  2E2F               	goto	l4220
  8273     0DEF                     l4212:
  8274                           
  8275                           ;helper.c: 170:                 clear_screen();
  8276     0DEF  160A  118A  2281  120A  158A  	fcall	_clear_screen
  8277                           
  8278                           ;helper.c: 171:                 clcd_write(0x0C, 0);
  8279     0DF4  01F3               	clrf	clcd_write@mode
  8280     0DF5  300C               	movlw	12
  8281     0DF6  160A  118A  2316  120A  158A  	fcall	_clcd_write
  8282     0DFB                     l4214:
  8283                           
  8284                           ;helper.c: 172:                 clcd_print("WRONG PASSWORD", (0x80 + 0));
  8285     0DFB  302E               	movlw	low (STR_23| (0+32768))
  8286     0DFC  1283               	bcf	3,5	;RP0=0, select bank0
  8287     0DFD  1303               	bcf	3,6	;RP1=0, select bank0
  8288     0DFE  00C5               	movwf	clcd_print@str
  8289     0DFF  3086               	movlw	high (STR_23| (0+32768))
  8290     0E00  00C6               	movwf	clcd_print@str+1
  8291     0E01  3080               	movlw	128
  8292     0E02  00C7               	movwf	clcd_print@addr
  8293     0E03  160A  118A  24CC  120A  158A  	fcall	_clcd_print
  8294     0E08                     l4216:
  8295                           
  8296                           ;helper.c: 173:                 clcd_putch(attempts + '0', (0xC0 + 0));
  8297     0E08  30C0               	movlw	192
  8298     0E09  1283               	bcf	3,5	;RP0=0, select bank0
  8299     0E0A  1303               	bcf	3,6	;RP1=0, select bank0
  8300     0E0B  00C9               	movwf	clcd_putch@addr
  8301     0E0C  0832               	movf	check_password@attempts,w
  8302     0E0D  3E30               	addlw	48
  8303     0E0E  160A  118A  22CD  120A  158A  	fcall	_clcd_putch
  8304                           
  8305                           ;helper.c: 174:                 clcd_print(" Attempts left", (0xC0 + 2));
  8306     0E13  303D               	movlw	low (STR_24| (0+32768))
  8307     0E14  1283               	bcf	3,5	;RP0=0, select bank0
  8308     0E15  1303               	bcf	3,6	;RP1=0, select bank0
  8309     0E16  00C5               	movwf	clcd_print@str
  8310     0E17  3086               	movlw	high (STR_24| (0+32768))
  8311     0E18  00C6               	movwf	clcd_print@str+1
  8312     0E19  30C2               	movlw	194
  8313     0E1A  00C7               	movwf	clcd_print@addr
  8314     0E1B  160A  118A  24CC  120A  158A  	fcall	_clcd_print
  8315     0E20                     l4218:
  8316                           
  8317                           ;helper.c: 175:                 _delay((unsigned long)((1500)*(20000000/4000.0)));
  8318     0E20  3027               	movlw	39
  8319     0E21  1283               	bcf	3,5	;RP0=0, select bank0
  8320     0E22  1303               	bcf	3,6	;RP1=0, select bank0
  8321     0E23  00CE               	movwf	??_check_password+2
  8322     0E24  300D               	movlw	13
  8323     0E25  00CD               	movwf	??_check_password+1
  8324     0E26  3025               	movlw	37
  8325     0E27  00CC               	movwf	??_check_password
  8326     0E28                     u5017:
  8327     0E28  0BCC               	decfsz	??_check_password,f
  8328     0E29  2E28               	goto	u5017
  8329     0E2A  0BCD               	decfsz	??_check_password+1,f
  8330     0E2B  2E28               	goto	u5017
  8331     0E2C  0BCE               	decfsz	??_check_password+2,f
  8332     0E2D  2E28               	goto	u5017
  8333     0E2E  2E2F               	nop2
  8334     0E2F                     l4220:
  8335                           
  8336                           ;helper.c: 177:             clear_screen();
  8337     0E2F  160A  118A  2281  120A  158A  	fcall	_clear_screen
  8338     0E34                     l4222:
  8339                           
  8340                           ;helper.c: 178:             clcd_print("ENTER PASSWORD", (0x80 + 0));
  8341     0E34  304C               	movlw	low (STR_10| (0+32768))
  8342     0E35  1283               	bcf	3,5	;RP0=0, select bank0
  8343     0E36  1303               	bcf	3,6	;RP1=0, select bank0
  8344     0E37  00C5               	movwf	clcd_print@str
  8345     0E38  3086               	movlw	high (STR_10| (0+32768))
  8346     0E39  00C6               	movwf	clcd_print@str+1
  8347     0E3A  3080               	movlw	128
  8348     0E3B  00C7               	movwf	clcd_print@addr
  8349     0E3C  160A  118A  24CC  120A  158A  	fcall	_clcd_print
  8350     0E41                     l4224:
  8351                           
  8352                           ;helper.c: 179:             clcd_write((0xC0 + 4), 0);
  8353     0E41  01F3               	clrf	clcd_write@mode
  8354     0E42  30C4               	movlw	196
  8355     0E43  160A  118A  2316  120A  158A  	fcall	_clcd_write
  8356     0E48                     l4226:
  8357                           
  8358                           ;helper.c: 180:             clcd_write(0x0F, 0);
  8359     0E48  01F3               	clrf	clcd_write@mode
  8360     0E49  300F               	movlw	15
  8361     0E4A  160A  118A  2316  120A  158A  	fcall	_clcd_write
  8362     0E4F                     l4228:
  8363                           
  8364                           ;helper.c: 181:             i = 0;
  8365     0E4F  1283               	bcf	3,5	;RP0=0, select bank0
  8366     0E50  1303               	bcf	3,6	;RP1=0, select bank0
  8367     0E51  01B1               	clrf	check_password@i
  8368     0E52                     l4230:
  8369                           
  8370                           ;helper.c: 182:             return_time = 5;
  8371     0E52  3005               	movlw	5
  8372     0E53  00B4               	movwf	_return_time
  8373     0E54                     l367:
  8374     0E54  0008               	return
  8375     0E55                     __end_of_check_password:
  8376                           
  8377                           	psect	text34
  8378     13E5                     __ptext34:	
  8379 ;; *************** function _ext_eeprom_24C02_read *****************
  8380 ;; Defined at:
  8381 ;;		line 12 in file "eeprom.c"
  8382 ;; Parameters:    Size  Location     Type
  8383 ;;  addr            1    wreg     unsigned char 
  8384 ;; Auto vars:     Size  Location     Type
  8385 ;;  addr            1    5[COMMON] unsigned char 
  8386 ;;  data            1    6[COMMON] unsigned char 
  8387 ;; Return value:  Size  Location     Type
  8388 ;;                  1    wreg      unsigned char 
  8389 ;; Registers used:
  8390 ;;		wreg, status,2, status,0, pclath, cstack
  8391 ;; Tracked objects:
  8392 ;;		On entry : 0/0
  8393 ;;		On exit  : 0/0
  8394 ;;		Unchanged: 0/0
  8395 ;; Data sizes:     COMMON   BANK0   BANK1   BANK3   BANK2
  8396 ;;      Params:         0       0       0       0       0
  8397 ;;      Locals:         2       0       0       0       0
  8398 ;;      Temps:          0       0       0       0       0
  8399 ;;      Totals:         2       0       0       0       0
  8400 ;;Total ram usage:        2 bytes
  8401 ;; Hardware stack levels used: 1
  8402 ;; Hardware stack levels required when called: 1
  8403 ;; This function calls:
  8404 ;;		_i2c_read
  8405 ;;		_i2c_rep_start
  8406 ;;		_i2c_start
  8407 ;;		_i2c_stop
  8408 ;;		_i2c_write
  8409 ;; This function is called by:
  8410 ;;		_check_password
  8411 ;;		_get_log
  8412 ;; This function uses a non-reentrant model
  8413 ;;
  8414                           
  8415     13E5                     _ext_eeprom_24C02_read:	
  8416                           ;psect for function _ext_eeprom_24C02_read
  8417                           
  8418                           
  8419                           ;incstack = 0
  8420                           ; Regs used in _ext_eeprom_24C02_read: [wreg+status,2+status,0+pclath+cstack]
  8421                           ;ext_eeprom_24C02_read@addr stored from wreg
  8422     13E5  00F5               	movwf	ext_eeprom_24C02_read@addr
  8423     13E6                     l3662:
  8424                           
  8425                           ;eeprom.c: 14:     unsigned char data;;eeprom.c: 16:     i2c_start();
  8426     13E6  160A  118A  222E  160A  118A  	fcall	_i2c_start
  8427                           
  8428                           ;eeprom.c: 17:     i2c_write(0b10100000);
  8429     13EB  30A0               	movlw	160
  8430     13EC  160A  118A  2253  160A  118A  	fcall	_i2c_write
  8431                           
  8432                           ;eeprom.c: 18:     i2c_write(addr);
  8433     13F1  0875               	movf	ext_eeprom_24C02_read@addr,w
  8434     13F2  160A  118A  2253  160A  118A  	fcall	_i2c_write
  8435                           
  8436                           ;eeprom.c: 19:     i2c_rep_start();
  8437     13F7  160A  118A  2240  160A  118A  	fcall	_i2c_rep_start
  8438                           
  8439                           ;eeprom.c: 20:     i2c_write(0b10100001);
  8440     13FC  30A1               	movlw	161
  8441     13FD  160A  118A  2253  160A  118A  	fcall	_i2c_write
  8442                           
  8443                           ;eeprom.c: 21:     data = i2c_read(0);
  8444     1402  3000               	movlw	0
  8445     1403  160A  118A  2336  160A  118A  	fcall	_i2c_read
  8446     1408  00F6               	movwf	ext_eeprom_24C02_read@data
  8447                           
  8448                           ;eeprom.c: 22:     i2c_stop();
  8449     1409  160A  118A  2237  160A  118A  	fcall	_i2c_stop
  8450     140E                     l3664:
  8451                           
  8452                           ;eeprom.c: 24:     return data;
  8453     140E  0876               	movf	ext_eeprom_24C02_read@data,w
  8454     140F                     l520:
  8455     140F  0008               	return
  8456     1410                     __end_of_ext_eeprom_24C02_read:
  8457                           
  8458                           	psect	text35
  8459     1240                     __ptext35:	
  8460 ;; *************** function _i2c_rep_start *****************
  8461 ;; Defined at:
  8462 ;;		line 38 in file "i2c.c"
  8463 ;; Parameters:    Size  Location     Type
  8464 ;;		None
  8465 ;; Auto vars:     Size  Location     Type
  8466 ;;		None
  8467 ;; Return value:  Size  Location     Type
  8468 ;;                  1    wreg      void 
  8469 ;; Registers used:
  8470 ;;		wreg, status,2, status,0, pclath, cstack
  8471 ;; Tracked objects:
  8472 ;;		On entry : 0/0
  8473 ;;		On exit  : 0/0
  8474 ;;		Unchanged: 0/0
  8475 ;; Data sizes:     COMMON   BANK0   BANK1   BANK3   BANK2
  8476 ;;      Params:         0       0       0       0       0
  8477 ;;      Locals:         0       0       0       0       0
  8478 ;;      Temps:          0       0       0       0       0
  8479 ;;      Totals:         0       0       0       0       0
  8480 ;;Total ram usage:        0 bytes
  8481 ;; Hardware stack levels used: 1
  8482 ;; Hardware stack levels required when called: 1
  8483 ;; This function calls:
  8484 ;;		_i2c_wait_for_idle
  8485 ;; This function is called by:
  8486 ;;		_read_ds1307
  8487 ;;		_ext_eeprom_24C02_read
  8488 ;; This function uses a non-reentrant model
  8489 ;;
  8490                           
  8491     1240                     _i2c_rep_start:	
  8492                           ;psect for function _i2c_rep_start
  8493                           
  8494     1240                     l3626:	
  8495                           ;incstack = 0
  8496                           ; Regs used in _i2c_rep_start: [wreg+status,2+status,0+pclath+cstack]
  8497                           
  8498                           
  8499                           ;i2c.c: 39:     RCEN = 1;
  8500     1240  160A  118A  2274  160A  118A  	fcall	_i2c_wait_for_idle
  8501     1245                     l3628:
  8502                           
  8503                           ;i2c.c: 40: 
  8504     1245  1683               	bsf	3,5	;RP0=1, select bank1
  8505     1246  1303               	bcf	3,6	;RP1=0, select bank1
  8506     1247  1491               	bsf	17,1	;volatile
  8507     1248                     l99:
  8508     1248  0008               	return
  8509     1249                     __end_of_i2c_rep_start:
  8510                           
  8511                           	psect	text36
  8512     1336                     __ptext36:	
  8513 ;; *************** function _i2c_read *****************
  8514 ;; Defined at:
  8515 ;;		line 48 in file "i2c.c"
  8516 ;; Parameters:    Size  Location     Type
  8517 ;;  ack             1    wreg     unsigned char 
  8518 ;; Auto vars:     Size  Location     Type
  8519 ;;  ack             1    3[COMMON] unsigned char 
  8520 ;;  data            1    4[COMMON] unsigned char 
  8521 ;; Return value:  Size  Location     Type
  8522 ;;                  1    wreg      unsigned char 
  8523 ;; Registers used:
  8524 ;;		wreg, status,2, status,0, pclath, cstack
  8525 ;; Tracked objects:
  8526 ;;		On entry : 0/0
  8527 ;;		On exit  : 0/0
  8528 ;;		Unchanged: 0/0
  8529 ;; Data sizes:     COMMON   BANK0   BANK1   BANK3   BANK2
  8530 ;;      Params:         0       0       0       0       0
  8531 ;;      Locals:         2       0       0       0       0
  8532 ;;      Temps:          0       0       0       0       0
  8533 ;;      Totals:         2       0       0       0       0
  8534 ;;Total ram usage:        2 bytes
  8535 ;; Hardware stack levels used: 1
  8536 ;; Hardware stack levels required when called: 1
  8537 ;; This function calls:
  8538 ;;		_i2c_wait_for_idle
  8539 ;; This function is called by:
  8540 ;;		_read_ds1307
  8541 ;;		_ext_eeprom_24C02_read
  8542 ;; This function uses a non-reentrant model
  8543 ;;
  8544                           
  8545     1336                     _i2c_read:	
  8546                           ;psect for function _i2c_read
  8547                           
  8548                           
  8549                           ;incstack = 0
  8550                           ; Regs used in _i2c_read: [wreg+status,2+status,0+pclath+cstack]
  8551                           ;i2c_read@ack stored from wreg
  8552     1336  00F3               	movwf	i2c_read@ack
  8553     1337                     l3630:
  8554                           
  8555                           ;i2c.c: 50: ;i2c.c: 52: }
  8556     1337  160A  118A  2274  160A  118A  	fcall	_i2c_wait_for_idle
  8557     133C                     l3632:
  8558                           
  8559                           ;i2c.c: 53: 
  8560     133C  1683               	bsf	3,5	;RP0=1, select bank1
  8561     133D  1303               	bcf	3,6	;RP1=0, select bank1
  8562     133E  1591               	bsf	17,3	;volatile
  8563                           
  8564                           ;i2c.c: 55: 
  8565     133F  160A  118A  2274  160A  118A  	fcall	_i2c_wait_for_idle
  8566     1344                     l3634:
  8567                           
  8568                           ;i2c.c: 56:     i2c_wait_for_idle();
  8569     1344  1283               	bcf	3,5	;RP0=0, select bank0
  8570     1345  1303               	bcf	3,6	;RP1=0, select bank0
  8571     1346  0813               	movf	19,w	;volatile
  8572     1347  00F4               	movwf	i2c_read@data
  8573     1348                     l3636:
  8574                           
  8575                           ;i2c.c: 58: 
  8576     1348  0373               	decf	i2c_read@ack,w
  8577     1349  1D03               	btfss	3,2
  8578     134A  2B4C               	goto	u3331
  8579     134B  2B4D               	goto	u3330
  8580     134C                     u3331:
  8581     134C  2B51               	goto	l105
  8582     134D                     u3330:
  8583     134D                     l3638:
  8584                           
  8585                           ;i2c.c: 59:     return !ACKSTAT;
  8586     134D  1683               	bsf	3,5	;RP0=1, select bank1
  8587     134E  1303               	bcf	3,6	;RP1=0, select bank1
  8588     134F  1691               	bsf	17,5	;volatile
  8589     1350  2B54               	goto	l106
  8590     1351                     l105:	
  8591                           ;i2c.c: 60: }
  8592                           
  8593     1351  1683               	bsf	3,5	;RP0=1, select bank1
  8594     1352  1303               	bcf	3,6	;RP1=0, select bank1
  8595     1353  1291               	bcf	17,5	;volatile
  8596     1354                     l106:
  8597     1354  1611               	bsf	17,4	;volatile
  8598     1355                     l3640:
  8599     1355  0874               	movf	i2c_read@data,w
  8600     1356                     l107:
  8601     1356  0008               	return
  8602     1357                     __end_of_i2c_read:
  8603                           
  8604                           	psect	text37
  8605     0806                     __ptext37:	
  8606 ;; *************** function ___awmod *****************
  8607 ;; Defined at:
  8608 ;;		line 5 in file "C:\Program Files\Microchip\xc8\v3.10\pic\sources\c99\common\awmod.c"
  8609 ;; Parameters:    Size  Location     Type
  8610 ;;  divisor         2    3[COMMON] int 
  8611 ;;  dividend        2    5[COMMON] int 
  8612 ;; Auto vars:     Size  Location     Type
  8613 ;;  sign            1    1[BANK0 ] unsigned char 
  8614 ;;  counter         1    0[BANK0 ] unsigned char 
  8615 ;; Return value:  Size  Location     Type
  8616 ;;                  2    3[COMMON] int 
  8617 ;; Registers used:
  8618 ;;		wreg, status,2, status,0
  8619 ;; Tracked objects:
  8620 ;;		On entry : 0/0
  8621 ;;		On exit  : 0/0
  8622 ;;		Unchanged: 0/0
  8623 ;; Data sizes:     COMMON   BANK0   BANK1   BANK3   BANK2
  8624 ;;      Params:         4       0       0       0       0
  8625 ;;      Locals:         0       2       0       0       0
  8626 ;;      Temps:          0       0       0       0       0
  8627 ;;      Totals:         4       2       0       0       0
  8628 ;;Total ram usage:        6 bytes
  8629 ;; Hardware stack levels used: 1
  8630 ;; Hardware stack levels required when called: 1
  8631 ;; This function calls:
  8632 ;;		Nothing
  8633 ;; This function is called by:
  8634 ;;		_main
  8635 ;;		_display_dashboard
  8636 ;;		_log_event
  8637 ;;		_check_password
  8638 ;;		_display_log
  8639 ;;		_display_uart
  8640 ;;		_set_time
  8641 ;; This function uses a non-reentrant model
  8642 ;;
  8643                           
  8644     0806                     ___awmod:	
  8645                           ;psect for function ___awmod
  8646                           
  8647     0806                     l3766:	
  8648                           ;incstack = 0
  8649                           ; Regs used in ___awmod: [wreg+status,2+status,0]
  8650                           
  8651     0806  1283               	bcf	3,5	;RP0=0, select bank0
  8652     0807  1303               	bcf	3,6	;RP1=0, select bank0
  8653     0808  01C6               	clrf	___awmod@sign
  8654     0809                     l3768:
  8655     0809  1FF6               	btfss	___awmod@dividend+1,7
  8656     080A  280C               	goto	u3501
  8657     080B  280D               	goto	u3500
  8658     080C                     u3501:
  8659     080C  2814               	goto	l3774
  8660     080D                     u3500:
  8661     080D                     l3770:
  8662     080D  09F5               	comf	___awmod@dividend,f
  8663     080E  09F6               	comf	___awmod@dividend+1,f
  8664     080F  0AF5               	incf	___awmod@dividend,f
  8665     0810  1903               	skipnz
  8666     0811  0AF6               	incf	___awmod@dividend+1,f
  8667     0812                     l3772:
  8668     0812  3001               	movlw	1
  8669     0813  00C6               	movwf	___awmod@sign
  8670     0814                     l3774:
  8671     0814  1FF4               	btfss	___awmod@divisor+1,7
  8672     0815  2817               	goto	u3511
  8673     0816  2818               	goto	u3510
  8674     0817                     u3511:
  8675     0817  281D               	goto	l3778
  8676     0818                     u3510:
  8677     0818                     l3776:
  8678     0818  09F3               	comf	___awmod@divisor,f
  8679     0819  09F4               	comf	___awmod@divisor+1,f
  8680     081A  0AF3               	incf	___awmod@divisor,f
  8681     081B  1903               	skipnz
  8682     081C  0AF4               	incf	___awmod@divisor+1,f
  8683     081D                     l3778:
  8684     081D  0873               	movf	___awmod@divisor,w
  8685     081E  0474               	iorwf	___awmod@divisor+1,w
  8686     081F  1903               	btfsc	3,2
  8687     0820  2822               	goto	u3521
  8688     0821  2823               	goto	u3520
  8689     0822                     u3521:
  8690     0822  2850               	goto	l3796
  8691     0823                     u3520:
  8692     0823                     l3780:
  8693     0823  3001               	movlw	1
  8694     0824  00C5               	movwf	___awmod@counter
  8695     0825  282F               	goto	l3786
  8696     0826                     l3782:
  8697     0826  3001               	movlw	1
  8698     0827                     u3535:
  8699     0827  1003               	clrc
  8700     0828  0DF3               	rlf	___awmod@divisor,f
  8701     0829  0DF4               	rlf	___awmod@divisor+1,f
  8702     082A  3EFF               	addlw	-1
  8703     082B  1D03               	skipz
  8704     082C  2827               	goto	u3535
  8705     082D                     l3784:
  8706     082D  3001               	movlw	1
  8707     082E  07C5               	addwf	___awmod@counter,f
  8708     082F                     l3786:
  8709     082F  1FF4               	btfss	___awmod@divisor+1,7
  8710     0830  2832               	goto	u3541
  8711     0831  2833               	goto	u3540
  8712     0832                     u3541:
  8713     0832  2826               	goto	l3782
  8714     0833                     u3540:
  8715     0833                     l3788:
  8716     0833  0874               	movf	___awmod@divisor+1,w
  8717     0834  0276               	subwf	___awmod@dividend+1,w
  8718     0835  1D03               	skipz
  8719     0836  2839               	goto	u3555
  8720     0837  0873               	movf	___awmod@divisor,w
  8721     0838  0275               	subwf	___awmod@dividend,w
  8722     0839                     u3555:
  8723     0839  1C03               	skipc
  8724     083A  283C               	goto	u3551
  8725     083B  283D               	goto	u3550
  8726     083C                     u3551:
  8727     083C  2843               	goto	l3792
  8728     083D                     u3550:
  8729     083D                     l3790:
  8730     083D  0873               	movf	___awmod@divisor,w
  8731     083E  02F5               	subwf	___awmod@dividend,f
  8732     083F  0874               	movf	___awmod@divisor+1,w
  8733     0840  1C03               	skipc
  8734     0841  03F6               	decf	___awmod@dividend+1,f
  8735     0842  02F6               	subwf	___awmod@dividend+1,f
  8736     0843                     l3792:
  8737     0843  3001               	movlw	1
  8738     0844                     u3565:
  8739     0844  1003               	clrc
  8740     0845  0CF4               	rrf	___awmod@divisor+1,f
  8741     0846  0CF3               	rrf	___awmod@divisor,f
  8742     0847  3EFF               	addlw	-1
  8743     0848  1D03               	skipz
  8744     0849  2844               	goto	u3565
  8745     084A                     l3794:
  8746     084A  3001               	movlw	1
  8747     084B  02C5               	subwf	___awmod@counter,f
  8748     084C  1D03               	btfss	3,2
  8749     084D  284F               	goto	u3571
  8750     084E  2850               	goto	u3570
  8751     084F                     u3571:
  8752     084F  2833               	goto	l3788
  8753     0850                     u3570:
  8754     0850                     l3796:
  8755     0850  0846               	movf	___awmod@sign,w
  8756     0851  1903               	btfsc	3,2
  8757     0852  2854               	goto	u3581
  8758     0853  2855               	goto	u3580
  8759     0854                     u3581:
  8760     0854  285A               	goto	l3800
  8761     0855                     u3580:
  8762     0855                     l3798:
  8763     0855  09F5               	comf	___awmod@dividend,f
  8764     0856  09F6               	comf	___awmod@dividend+1,f
  8765     0857  0AF5               	incf	___awmod@dividend,f
  8766     0858  1903               	skipnz
  8767     0859  0AF6               	incf	___awmod@dividend+1,f
  8768     085A                     l3800:
  8769     085A  0876               	movf	___awmod@dividend+1,w
  8770     085B  00F4               	movwf	?___awmod+1
  8771     085C  0875               	movf	___awmod@dividend,w
  8772     085D  00F3               	movwf	?___awmod
  8773     085E                     l855:
  8774     085E  0008               	return
  8775     085F                     __end_of___awmod:
  8776                           
  8777                           	psect	text38
  8778     085F                     __ptext38:	
  8779 ;; *************** function ___awdiv *****************
  8780 ;; Defined at:
  8781 ;;		line 5 in file "C:\Program Files\Microchip\xc8\v3.10\pic\sources\c99\common\awdiv.c"
  8782 ;; Parameters:    Size  Location     Type
  8783 ;;  divisor         2    3[COMMON] int 
  8784 ;;  dividend        2    5[COMMON] int 
  8785 ;; Auto vars:     Size  Location     Type
  8786 ;;  quotient        2    2[BANK0 ] int 
  8787 ;;  sign            1    1[BANK0 ] unsigned char 
  8788 ;;  counter         1    0[BANK0 ] unsigned char 
  8789 ;; Return value:  Size  Location     Type
  8790 ;;                  2    3[COMMON] int 
  8791 ;; Registers used:
  8792 ;;		wreg, status,2, status,0
  8793 ;; Tracked objects:
  8794 ;;		On entry : 0/0
  8795 ;;		On exit  : 0/0
  8796 ;;		Unchanged: 0/0
  8797 ;; Data sizes:     COMMON   BANK0   BANK1   BANK3   BANK2
  8798 ;;      Params:         4       0       0       0       0
  8799 ;;      Locals:         0       4       0       0       0
  8800 ;;      Temps:          0       0       0       0       0
  8801 ;;      Totals:         4       4       0       0       0
  8802 ;;Total ram usage:        8 bytes
  8803 ;; Hardware stack levels used: 1
  8804 ;; Hardware stack levels required when called: 1
  8805 ;; This function calls:
  8806 ;;		Nothing
  8807 ;; This function is called by:
  8808 ;;		_main
  8809 ;;		_display_dashboard
  8810 ;;		_log_event
  8811 ;;		_check_password
  8812 ;;		_set_time
  8813 ;; This function uses a non-reentrant model
  8814 ;;
  8815                           
  8816     085F                     ___awdiv:	
  8817                           ;psect for function ___awdiv
  8818                           
  8819     085F                     l3938:	
  8820                           ;incstack = 0
  8821                           ; Regs used in ___awdiv: [wreg+status,2+status,0]
  8822                           
  8823     085F  1283               	bcf	3,5	;RP0=0, select bank0
  8824     0860  1303               	bcf	3,6	;RP1=0, select bank0
  8825     0861  01C6               	clrf	___awdiv@sign
  8826     0862                     l3940:
  8827     0862  1FF4               	btfss	___awdiv@divisor+1,7
  8828     0863  2865               	goto	u3731
  8829     0864  2866               	goto	u3730
  8830     0865                     u3731:
  8831     0865  286D               	goto	l3946
  8832     0866                     u3730:
  8833     0866                     l3942:
  8834     0866  09F3               	comf	___awdiv@divisor,f
  8835     0867  09F4               	comf	___awdiv@divisor+1,f
  8836     0868  0AF3               	incf	___awdiv@divisor,f
  8837     0869  1903               	skipnz
  8838     086A  0AF4               	incf	___awdiv@divisor+1,f
  8839     086B                     l3944:
  8840     086B  3001               	movlw	1
  8841     086C  00C6               	movwf	___awdiv@sign
  8842     086D                     l3946:
  8843     086D  1FF6               	btfss	___awdiv@dividend+1,7
  8844     086E  2870               	goto	u3741
  8845     086F  2871               	goto	u3740
  8846     0870                     u3741:
  8847     0870  2878               	goto	l3952
  8848     0871                     u3740:
  8849     0871                     l3948:
  8850     0871  09F5               	comf	___awdiv@dividend,f
  8851     0872  09F6               	comf	___awdiv@dividend+1,f
  8852     0873  0AF5               	incf	___awdiv@dividend,f
  8853     0874  1903               	skipnz
  8854     0875  0AF6               	incf	___awdiv@dividend+1,f
  8855     0876                     l3950:
  8856     0876  3001               	movlw	1
  8857     0877  06C6               	xorwf	___awdiv@sign,f
  8858     0878                     l3952:
  8859     0878  01C7               	clrf	___awdiv@quotient
  8860     0879  01C8               	clrf	___awdiv@quotient+1
  8861     087A                     l3954:
  8862     087A  0873               	movf	___awdiv@divisor,w
  8863     087B  0474               	iorwf	___awdiv@divisor+1,w
  8864     087C  1903               	btfsc	3,2
  8865     087D  287F               	goto	u3751
  8866     087E  2880               	goto	u3750
  8867     087F                     u3751:
  8868     087F  28B5               	goto	l3974
  8869     0880                     u3750:
  8870     0880                     l3956:
  8871     0880  3001               	movlw	1
  8872     0881  00C5               	movwf	___awdiv@counter
  8873     0882  288C               	goto	l3962
  8874     0883                     l3958:
  8875     0883  3001               	movlw	1
  8876     0884                     u3765:
  8877     0884  1003               	clrc
  8878     0885  0DF3               	rlf	___awdiv@divisor,f
  8879     0886  0DF4               	rlf	___awdiv@divisor+1,f
  8880     0887  3EFF               	addlw	-1
  8881     0888  1D03               	skipz
  8882     0889  2884               	goto	u3765
  8883     088A                     l3960:
  8884     088A  3001               	movlw	1
  8885     088B  07C5               	addwf	___awdiv@counter,f
  8886     088C                     l3962:
  8887     088C  1FF4               	btfss	___awdiv@divisor+1,7
  8888     088D  288F               	goto	u3771
  8889     088E  2890               	goto	u3770
  8890     088F                     u3771:
  8891     088F  2883               	goto	l3958
  8892     0890                     u3770:
  8893     0890                     l3964:
  8894     0890  3001               	movlw	1
  8895     0891                     u3785:
  8896     0891  1003               	clrc
  8897     0892  0DC7               	rlf	___awdiv@quotient,f
  8898     0893  0DC8               	rlf	___awdiv@quotient+1,f
  8899     0894  3EFF               	addlw	-1
  8900     0895  1D03               	skipz
  8901     0896  2891               	goto	u3785
  8902     0897  0874               	movf	___awdiv@divisor+1,w
  8903     0898  0276               	subwf	___awdiv@dividend+1,w
  8904     0899  1D03               	skipz
  8905     089A  289D               	goto	u3795
  8906     089B  0873               	movf	___awdiv@divisor,w
  8907     089C  0275               	subwf	___awdiv@dividend,w
  8908     089D                     u3795:
  8909     089D  1C03               	skipc
  8910     089E  28A0               	goto	u3791
  8911     089F  28A1               	goto	u3790
  8912     08A0                     u3791:
  8913     08A0  28A8               	goto	l3970
  8914     08A1                     u3790:
  8915     08A1                     l3966:
  8916     08A1  0873               	movf	___awdiv@divisor,w
  8917     08A2  02F5               	subwf	___awdiv@dividend,f
  8918     08A3  0874               	movf	___awdiv@divisor+1,w
  8919     08A4  1C03               	skipc
  8920     08A5  03F6               	decf	___awdiv@dividend+1,f
  8921     08A6  02F6               	subwf	___awdiv@dividend+1,f
  8922     08A7                     l3968:
  8923     08A7  1447               	bsf	___awdiv@quotient,0
  8924     08A8                     l3970:
  8925     08A8  3001               	movlw	1
  8926     08A9                     u3805:
  8927     08A9  1003               	clrc
  8928     08AA  0CF4               	rrf	___awdiv@divisor+1,f
  8929     08AB  0CF3               	rrf	___awdiv@divisor,f
  8930     08AC  3EFF               	addlw	-1
  8931     08AD  1D03               	skipz
  8932     08AE  28A9               	goto	u3805
  8933     08AF                     l3972:
  8934     08AF  3001               	movlw	1
  8935     08B0  02C5               	subwf	___awdiv@counter,f
  8936     08B1  1D03               	btfss	3,2
  8937     08B2  28B4               	goto	u3811
  8938     08B3  28B5               	goto	u3810
  8939     08B4                     u3811:
  8940     08B4  2890               	goto	l3964
  8941     08B5                     u3810:
  8942     08B5                     l3974:
  8943     08B5  0846               	movf	___awdiv@sign,w
  8944     08B6  1903               	btfsc	3,2
  8945     08B7  28B9               	goto	u3821
  8946     08B8  28BA               	goto	u3820
  8947     08B9                     u3821:
  8948     08B9  28BF               	goto	l3978
  8949     08BA                     u3820:
  8950     08BA                     l3976:
  8951     08BA  09C7               	comf	___awdiv@quotient,f
  8952     08BB  09C8               	comf	___awdiv@quotient+1,f
  8953     08BC  0AC7               	incf	___awdiv@quotient,f
  8954     08BD  1903               	skipnz
  8955     08BE  0AC8               	incf	___awdiv@quotient+1,f
  8956     08BF                     l3978:
  8957     08BF  0848               	movf	___awdiv@quotient+1,w
  8958     08C0  00F4               	movwf	?___awdiv+1
  8959     08C1  0847               	movf	___awdiv@quotient,w
  8960     08C2  00F3               	movwf	?___awdiv
  8961     08C3                     l842:
  8962     08C3  0008               	return
  8963     08C4                     __end_of___awdiv:
  8964                           
  8965                           	psect	text39
  8966     0B61                     __ptext39:	
  8967 ;; *************** function _change_password *****************
  8968 ;; Defined at:
  8969 ;;		line 444 in file "helper.c"
  8970 ;; Parameters:    Size  Location     Type
  8971 ;;  reset_flag      1    wreg     unsigned char 
  8972 ;;  key             1    6[BANK0 ] unsigned char 
  8973 ;; Auto vars:     Size  Location     Type
  8974 ;;  reset_flag      1   10[BANK0 ] unsigned char 
  8975 ;;  i               1   11[BANK0 ] unsigned char 
  8976 ;;  pass            4    0        unsigned char [4]
  8977 ;; Return value:  Size  Location     Type
  8978 ;;                  1    wreg      unsigned char 
  8979 ;; Registers used:
  8980 ;;		wreg, fsr0l, fsr0h, status,2, status,0, pclath, btemp1, cstack
  8981 ;; Tracked objects:
  8982 ;;		On entry : 0/0
  8983 ;;		On exit  : 0/0
  8984 ;;		Unchanged: 0/0
  8985 ;; Data sizes:     COMMON   BANK0   BANK1   BANK3   BANK2
  8986 ;;      Params:         0       1       0       0       0
  8987 ;;      Locals:         0       2       0       0       0
  8988 ;;      Temps:          0       3       0       0       0
  8989 ;;      Totals:         0       6       0       0       0
  8990 ;;Total ram usage:        6 bytes
  8991 ;; Hardware stack levels used: 1
  8992 ;; Hardware stack levels required when called: 4
  8993 ;; This function calls:
  8994 ;;		_clcd_print
  8995 ;;		_clcd_putch
  8996 ;;		_clcd_write
  8997 ;;		_clear_screen
  8998 ;;		_ext_eeprom_24c02_byte_write
  8999 ;;		_strncmp
  9000 ;; This function is called by:
  9001 ;;		_main
  9002 ;; This function uses a non-reentrant model
  9003 ;;
  9004                           
  9005     0B61                     _change_password:	
  9006                           ;psect for function _change_password
  9007                           
  9008                           
  9009                           ;incstack = 0
  9010                           ; Regs used in _change_password: [wreg-fsr0h+status,2+status,0+pclath+btemp1+cstack]
  9011                           ;change_password@reset_flag stored from wreg
  9012     0B61  1283               	bcf	3,5	;RP0=0, select bank0
  9013     0B62  1303               	bcf	3,6	;RP1=0, select bank0
  9014     0B63  00CF               	movwf	change_password@reset_flag
  9015     0B64                     l4362:
  9016                           
  9017                           ;helper.c: 445:     unsigned char pass[4];;helper.c: 446:     static unsigned char passw
      +                          ord_1[4];;helper.c: 447:     static unsigned char password_2[4];;helper.c: 448:     stat
      +                          ic unsigned char i, j;;helper.c: 450:     if (reset_flag == 0x17) {
  9018     0B64  3017               	movlw	23
  9019     0B65  064F               	xorwf	change_password@reset_flag,w
  9020     0B66  1D03               	btfss	3,2
  9021     0B67  2B69               	goto	u4321
  9022     0B68  2B6A               	goto	u4320
  9023     0B69                     u4321:
  9024     0B69  2B99               	goto	l4396
  9025     0B6A                     u4320:
  9026     0B6A                     l4364:
  9027                           
  9028                           ;helper.c: 451:         clear_screen();
  9029     0B6A  160A  118A  2281  120A  158A  	fcall	_clear_screen
  9030     0B6F                     l4366:
  9031                           
  9032                           ;helper.c: 452:         clcd_print("ENTER NEW PASSWD", (0x80 + 0));
  9033     0B6F  3088               	movlw	low (STR_36| (0+32768))
  9034     0B70  1283               	bcf	3,5	;RP0=0, select bank0
  9035     0B71  1303               	bcf	3,6	;RP1=0, select bank0
  9036     0B72  00C5               	movwf	clcd_print@str
  9037     0B73  3085               	movlw	high (STR_36| (0+32768))
  9038     0B74  00C6               	movwf	clcd_print@str+1
  9039     0B75  3080               	movlw	128
  9040     0B76  00C7               	movwf	clcd_print@addr
  9041     0B77  160A  118A  24CC  120A  158A  	fcall	_clcd_print
  9042     0B7C                     l4368:
  9043                           
  9044                           ;helper.c: 453:         clcd_write((0xC0 + 4), 0);
  9045     0B7C  01F3               	clrf	clcd_write@mode
  9046     0B7D  30C4               	movlw	196
  9047     0B7E  160A  118A  2316  120A  158A  	fcall	_clcd_write
  9048     0B83                     l4370:
  9049                           
  9050                           ;helper.c: 454:         clcd_write(0x0F, 0);
  9051     0B83  01F3               	clrf	clcd_write@mode
  9052     0B84  300F               	movlw	15
  9053     0B85  160A  118A  2316  120A  158A  	fcall	_clcd_write
  9054     0B8A                     l4372:
  9055                           
  9056                           ;helper.c: 455:         i = 0;
  9057     0B8A  1283               	bcf	3,5	;RP0=0, select bank0
  9058     0B8B  1303               	bcf	3,6	;RP1=0, select bank0
  9059     0B8C  01AC               	clrf	change_password@i
  9060     0B8D                     l4374:
  9061                           
  9062                           ;helper.c: 456:         j = 0;
  9063     0B8D  01AB               	clrf	change_password@j
  9064     0B8E                     l4376:
  9065                           
  9066                           ;helper.c: 457:         return_time = 5;
  9067     0B8E  3005               	movlw	5
  9068     0B8F  00B4               	movwf	_return_time
  9069     0B90                     l4378:
  9070                           
  9071                           ;helper.c: 459:         password_1[0] = '\0';
  9072     0B90  01BD               	clrf	change_password@password_1
  9073     0B91                     l4380:
  9074                           
  9075                           ;helper.c: 460:         password_1[1] = '\0';
  9076     0B91  01BE               	clrf	change_password@password_1+1
  9077     0B92                     l4382:
  9078                           
  9079                           ;helper.c: 461:         password_1[2] = '\0';
  9080     0B92  01BF               	clrf	change_password@password_1+2
  9081     0B93                     l4384:
  9082                           
  9083                           ;helper.c: 462:         password_1[3] = '\0';
  9084     0B93  01C0               	clrf	change_password@password_1+3
  9085     0B94                     l4386:
  9086                           
  9087                           ;helper.c: 464:         password_2[0] = '\0';
  9088     0B94  01B9               	clrf	change_password@password_2
  9089     0B95                     l4388:
  9090                           
  9091                           ;helper.c: 465:         password_2[1] = '\0';
  9092     0B95  01BA               	clrf	change_password@password_2+1
  9093     0B96                     l4390:
  9094                           
  9095                           ;helper.c: 466:         password_2[2] = '\0';
  9096     0B96  01BB               	clrf	change_password@password_2+2
  9097     0B97                     l4392:
  9098                           
  9099                           ;helper.c: 467:         password_2[3] = '\0';
  9100     0B97  01BC               	clrf	change_password@password_2+3
  9101     0B98                     l4394:
  9102                           
  9103                           ;helper.c: 469:         key = 0;
  9104     0B98  01CB               	clrf	change_password@key
  9105     0B99                     l4396:
  9106                           
  9107                           ;helper.c: 472:     if (key == 0x37) {
  9108     0B99  3037               	movlw	55
  9109     0B9A  064B               	xorwf	change_password@key,w
  9110     0B9B  1D03               	btfss	3,2
  9111     0B9C  2B9E               	goto	u4331
  9112     0B9D  2B9F               	goto	u4330
  9113     0B9E                     u4331:
  9114     0B9E  2BCD               	goto	l4414
  9115     0B9F                     u4330:
  9116     0B9F                     l4398:
  9117                           
  9118                           ;helper.c: 473:         if (i < 4) {
  9119     0B9F  3004               	movlw	4
  9120     0BA0  022C               	subwf	change_password@i,w
  9121     0BA1  1803               	skipnc
  9122     0BA2  2BA4               	goto	u4341
  9123     0BA3  2BA5               	goto	u4340
  9124     0BA4                     u4341:
  9125     0BA4  2BB7               	goto	l4406
  9126     0BA5                     u4340:
  9127     0BA5                     l4400:
  9128                           
  9129                           ;helper.c: 474:             password_1[i] = '1';
  9130     0BA5  082C               	movf	change_password@i,w
  9131     0BA6  3E3D               	addlw	(low (change_password@password_1| 0))& (0+255)
  9132     0BA7  0084               	movwf	4
  9133     0BA8  3031               	movlw	49
  9134     0BA9  1383               	bcf	3,7	;select IRP bank0
  9135     0BAA  0080               	movwf	0
  9136     0BAB                     l4402:
  9137                           
  9138                           ;helper.c: 475:             i++;
  9139     0BAB  3001               	movlw	1
  9140     0BAC  07AC               	addwf	change_password@i,f
  9141     0BAD                     l4404:
  9142                           
  9143                           ;helper.c: 476:             clcd_putch('*', (0xC0 + i + 4));
  9144     0BAD  082C               	movf	change_password@i,w
  9145     0BAE  3EC4               	addlw	196
  9146     0BAF  00C9               	movwf	clcd_putch@addr
  9147     0BB0  302A               	movlw	42
  9148     0BB1  160A  118A  22CD  120A  158A  	fcall	_clcd_putch
  9149                           
  9150                           ;helper.c: 477:         } else {
  9151     0BB6  2BC8               	goto	l4412
  9152     0BB7                     l4406:
  9153                           
  9154                           ;helper.c: 478:             password_2[j] = '1';
  9155     0BB7  082B               	movf	change_password@j,w
  9156     0BB8  3E39               	addlw	(low (change_password@password_2| 0))& (0+255)
  9157     0BB9  0084               	movwf	4
  9158     0BBA  3031               	movlw	49
  9159     0BBB  1383               	bcf	3,7	;select IRP bank0
  9160     0BBC  0080               	movwf	0
  9161     0BBD                     l4408:
  9162                           
  9163                           ;helper.c: 479:             j++;
  9164     0BBD  3001               	movlw	1
  9165     0BBE  07AB               	addwf	change_password@j,f
  9166     0BBF                     l4410:
  9167                           
  9168                           ;helper.c: 480:             clcd_putch('*', (0xC0 + j + 4));
  9169     0BBF  082B               	movf	change_password@j,w
  9170     0BC0  3EC4               	addlw	196
  9171     0BC1  00C9               	movwf	clcd_putch@addr
  9172     0BC2  302A               	movlw	42
  9173     0BC3  160A  118A  22CD  120A  158A  	fcall	_clcd_putch
  9174     0BC8                     l4412:
  9175                           
  9176                           ;helper.c: 482:         return_time = 5;
  9177     0BC8  3005               	movlw	5
  9178     0BC9  1283               	bcf	3,5	;RP0=0, select bank0
  9179     0BCA  1303               	bcf	3,6	;RP1=0, select bank0
  9180     0BCB  00B4               	movwf	_return_time
  9181                           
  9182                           ;helper.c: 483:     }
  9183     0BCC  2BFD               	goto	l4432
  9184     0BCD                     l4414:
  9185     0BCD  302F               	movlw	47
  9186     0BCE  064B               	xorwf	change_password@key,w
  9187     0BCF  1D03               	btfss	3,2
  9188     0BD0  2BD2               	goto	u4351
  9189     0BD1  2BD3               	goto	u4350
  9190     0BD2                     u4351:
  9191     0BD2  2BFD               	goto	l4432
  9192     0BD3                     u4350:
  9193     0BD3                     l4416:
  9194                           
  9195                           ;helper.c: 485:         if (i < 4) {
  9196     0BD3  3004               	movlw	4
  9197     0BD4  022C               	subwf	change_password@i,w
  9198     0BD5  1803               	skipnc
  9199     0BD6  2BD8               	goto	u4361
  9200     0BD7  2BD9               	goto	u4360
  9201     0BD8                     u4361:
  9202     0BD8  2BEB               	goto	l4424
  9203     0BD9                     u4360:
  9204     0BD9                     l4418:
  9205                           
  9206                           ;helper.c: 486:             password_1[i] = '0';
  9207     0BD9  082C               	movf	change_password@i,w
  9208     0BDA  3E3D               	addlw	(low (change_password@password_1| 0))& (0+255)
  9209     0BDB  0084               	movwf	4
  9210     0BDC  3030               	movlw	48
  9211     0BDD  1383               	bcf	3,7	;select IRP bank0
  9212     0BDE  0080               	movwf	0
  9213     0BDF                     l4420:
  9214                           
  9215                           ;helper.c: 487:             i++;
  9216     0BDF  3001               	movlw	1
  9217     0BE0  07AC               	addwf	change_password@i,f
  9218     0BE1                     l4422:
  9219                           
  9220                           ;helper.c: 488:             clcd_putch('*', (0xC0 + i + 4));
  9221     0BE1  082C               	movf	change_password@i,w
  9222     0BE2  3EC4               	addlw	196
  9223     0BE3  00C9               	movwf	clcd_putch@addr
  9224     0BE4  302A               	movlw	42
  9225     0BE5  160A  118A  22CD  120A  158A  	fcall	_clcd_putch
  9226                           
  9227                           ;helper.c: 489:         } else {
  9228     0BEA  2BC8               	goto	l4412
  9229     0BEB                     l4424:
  9230                           
  9231                           ;helper.c: 490:             password_2[j] = '0';
  9232     0BEB  082B               	movf	change_password@j,w
  9233     0BEC  3E39               	addlw	(low (change_password@password_2| 0))& (0+255)
  9234     0BED  0084               	movwf	4
  9235     0BEE  3030               	movlw	48
  9236     0BEF  1383               	bcf	3,7	;select IRP bank0
  9237     0BF0  0080               	movwf	0
  9238     0BF1                     l4426:
  9239                           
  9240                           ;helper.c: 491:             j++;
  9241     0BF1  3001               	movlw	1
  9242     0BF2  07AB               	addwf	change_password@j,f
  9243     0BF3                     l4428:
  9244                           
  9245                           ;helper.c: 492:             clcd_putch('*', (0xC0 + j + 4));
  9246     0BF3  082B               	movf	change_password@j,w
  9247     0BF4  3EC4               	addlw	196
  9248     0BF5  00C9               	movwf	clcd_putch@addr
  9249     0BF6  302A               	movlw	42
  9250     0BF7  160A  118A  22CD  120A  158A  	fcall	_clcd_putch
  9251     0BFC  2BC8               	goto	l4412
  9252     0BFD                     l4432:
  9253                           
  9254                           ;helper.c: 497:     if (i == 4) {
  9255     0BFD  3004               	movlw	4
  9256     0BFE  062C               	xorwf	change_password@i,w
  9257     0BFF  1D03               	btfss	3,2
  9258     0C00  2C02               	goto	u4371
  9259     0C01  2C03               	goto	u4370
  9260     0C02                     u4371:
  9261     0C02  2C26               	goto	l4444
  9262     0C03                     u4370:
  9263     0C03                     l4434:
  9264                           
  9265                           ;helper.c: 498:         i++;
  9266     0C03  3001               	movlw	1
  9267     0C04  07AC               	addwf	change_password@i,f
  9268     0C05                     l4436:
  9269                           
  9270                           ;helper.c: 499:         clear_screen();
  9271     0C05  160A  118A  2281  120A  158A  	fcall	_clear_screen
  9272     0C0A                     l4438:
  9273                           
  9274                           ;helper.c: 500:         clcd_print("RE-ENTER NEW PWD", (0x80 + 0));
  9275     0C0A  3077               	movlw	low (STR_37| (0+32768))
  9276     0C0B  1283               	bcf	3,5	;RP0=0, select bank0
  9277     0C0C  1303               	bcf	3,6	;RP1=0, select bank0
  9278     0C0D  00C5               	movwf	clcd_print@str
  9279     0C0E  3085               	movlw	high (STR_37| (0+32768))
  9280     0C0F  00C6               	movwf	clcd_print@str+1
  9281     0C10  3080               	movlw	128
  9282     0C11  00C7               	movwf	clcd_print@addr
  9283     0C12  160A  118A  24CC  120A  158A  	fcall	_clcd_print
  9284     0C17                     l4440:
  9285                           
  9286                           ;helper.c: 501:         clcd_write((0xC0 + 4), 0);
  9287     0C17  01F3               	clrf	clcd_write@mode
  9288     0C18  30C4               	movlw	196
  9289     0C19  160A  118A  2316  120A  158A  	fcall	_clcd_write
  9290     0C1E                     l4442:
  9291                           
  9292                           ;helper.c: 502:         clcd_write(0x0F, 0);
  9293     0C1E  01F3               	clrf	clcd_write@mode
  9294     0C1F  300F               	movlw	15
  9295     0C20  160A  118A  2316  120A  158A  	fcall	_clcd_write
  9296                           
  9297                           ;helper.c: 503:     } else if (j == 4)
  9298     0C25  2CB7               	goto	l483
  9299     0C26                     l4444:
  9300     0C26  3004               	movlw	4
  9301     0C27  062B               	xorwf	change_password@j,w
  9302     0C28  1D03               	btfss	3,2
  9303     0C29  2C2B               	goto	u4381
  9304     0C2A  2C2C               	goto	u4380
  9305     0C2B                     u4381:
  9306     0C2B  2CB7               	goto	l483
  9307     0C2C                     u4380:
  9308     0C2C                     l4446:
  9309                           
  9310                           ;helper.c: 504:     {;helper.c: 505:         if (!strncmp(password_1, password_2, 4)) {
  9311     0C2C  303D               	movlw	(low (change_password@password_1| 0))& (0+255)
  9312     0C2D  00F3               	movwf	strncmp@l
  9313     0C2E  3039               	movlw	(low (change_password@password_2| 0))& (0+255)
  9314     0C2F  00F4               	movwf	strncmp@r
  9315     0C30  3004               	movlw	4
  9316     0C31  00F5               	movwf	strncmp@n
  9317     0C32  3000               	movlw	0
  9318     0C33  00F6               	movwf	strncmp@n+1
  9319     0C34  160A  118A  25E3  120A  158A  	fcall	_strncmp
  9320     0C39  0873               	movf	?_strncmp,w
  9321     0C3A  0474               	iorwf	?_strncmp+1,w
  9322     0C3B  1D03               	btfss	3,2
  9323     0C3C  2C3E               	goto	u4391
  9324     0C3D  2C3F               	goto	u4390
  9325     0C3E                     u4391:
  9326     0C3E  2C86               	goto	l4472
  9327     0C3F                     u4390:
  9328     0C3F                     l4448:
  9329                           
  9330                           ;helper.c: 506:             clear_screen();
  9331     0C3F  160A  118A  2281  120A  158A  	fcall	_clear_screen
  9332     0C44                     l4450:
  9333                           
  9334                           ;helper.c: 507:             for (unsigned char i = 0; i < 4; i++) {
  9335     0C44  1283               	bcf	3,5	;RP0=0, select bank0
  9336     0C45  1303               	bcf	3,6	;RP1=0, select bank0
  9337     0C46  01D0               	clrf	change_password@i_409
  9338     0C47                     l4456:
  9339                           
  9340                           ;helper.c: 508:                 ext_eeprom_24c02_byte_write(i, password_1[i]);
  9341     0C47  0850               	movf	change_password@i_409,w
  9342     0C48  3E3D               	addlw	(low (change_password@password_1| 0))& (0+255)
  9343     0C49  0084               	movwf	4
  9344     0C4A  1383               	bcf	3,7	;select IRP bank0
  9345     0C4B  0800               	movf	0,w
  9346     0C4C  00F4               	movwf	ext_eeprom_24c02_byte_write@data
  9347     0C4D  0850               	movf	change_password@i_409,w
  9348     0C4E  160A  118A  22F8  120A  158A  	fcall	_ext_eeprom_24c02_byte_write
  9349     0C53                     l4458:
  9350                           
  9351                           ;helper.c: 509:             }
  9352     0C53  3001               	movlw	1
  9353     0C54  1283               	bcf	3,5	;RP0=0, select bank0
  9354     0C55  1303               	bcf	3,6	;RP1=0, select bank0
  9355     0C56  07D0               	addwf	change_password@i_409,f
  9356     0C57                     l4460:
  9357     0C57  3004               	movlw	4
  9358     0C58  0250               	subwf	change_password@i_409,w
  9359     0C59  1C03               	skipc
  9360     0C5A  2C5C               	goto	u4401
  9361     0C5B  2C5D               	goto	u4400
  9362     0C5C                     u4401:
  9363     0C5C  2C47               	goto	l4456
  9364     0C5D                     u4400:
  9365     0C5D                     l4462:
  9366                           
  9367                           ;helper.c: 510:             clcd_print("PASSWORD CHANGED", (0x80 + 0));
  9368     0C5D  3066               	movlw	low (STR_38| (0+32768))
  9369     0C5E  00C5               	movwf	clcd_print@str
  9370     0C5F  3085               	movlw	high (STR_38| (0+32768))
  9371     0C60  00C6               	movwf	clcd_print@str+1
  9372     0C61  3080               	movlw	128
  9373     0C62  00C7               	movwf	clcd_print@addr
  9374     0C63  160A  118A  24CC  120A  158A  	fcall	_clcd_print
  9375                           
  9376                           ;helper.c: 511:             clcd_print("  SUCCESSFULLY  ", (0xC0 + 0));
  9377     0C68  3033               	movlw	low (STR_30| (0+32768))
  9378     0C69  1283               	bcf	3,5	;RP0=0, select bank0
  9379     0C6A  1303               	bcf	3,6	;RP1=0, select bank0
  9380     0C6B  00C5               	movwf	clcd_print@str
  9381     0C6C  3085               	movlw	high (STR_30| (0+32768))
  9382     0C6D  00C6               	movwf	clcd_print@str+1
  9383     0C6E  30C0               	movlw	192
  9384     0C6F  00C7               	movwf	clcd_print@addr
  9385     0C70  160A  118A  24CC  120A  158A  	fcall	_clcd_print
  9386     0C75                     l4464:
  9387                           
  9388                           ;helper.c: 512:             _delay((unsigned long)((1000)*(20000000/4000.0)));
  9389     0C75  301A               	movlw	26
  9390     0C76  1283               	bcf	3,5	;RP0=0, select bank0
  9391     0C77  1303               	bcf	3,6	;RP1=0, select bank0
  9392     0C78  00CE               	movwf	??_change_password+2
  9393     0C79  305E               	movlw	94
  9394     0C7A  00CD               	movwf	??_change_password+1
  9395     0C7B  306D               	movlw	109
  9396     0C7C  00CC               	movwf	??_change_password
  9397     0C7D                     u5027:
  9398     0C7D  0BCC               	decfsz	??_change_password,f
  9399     0C7E  2C7D               	goto	u5027
  9400     0C7F  0BCD               	decfsz	??_change_password+1,f
  9401     0C80  2C7D               	goto	u5027
  9402     0C81  0BCE               	decfsz	??_change_password+2,f
  9403     0C82  2C7D               	goto	u5027
  9404     0C83  2C84               	nop2
  9405     0C84                     l4466:
  9406                           
  9407                           ;helper.c: 513:             return 0xA0;
  9408     0C84  30A0               	movlw	160
  9409     0C85  2CB7               	goto	l483
  9410     0C86                     l4472:
  9411                           
  9412                           ;helper.c: 516:             i = 0;
  9413     0C86  1283               	bcf	3,5	;RP0=0, select bank0
  9414     0C87  1303               	bcf	3,6	;RP1=0, select bank0
  9415     0C88  01AC               	clrf	change_password@i
  9416                           
  9417                           ;helper.c: 517:             j = 0;
  9418     0C89  01AB               	clrf	change_password@j
  9419     0C8A                     l4474:
  9420                           
  9421                           ;helper.c: 518:             clcd_print("PASSWRD MISMATCH", (0x80 + 0));
  9422     0C8A  3099               	movlw	low (STR_40| (0+32768))
  9423     0C8B  00C5               	movwf	clcd_print@str
  9424     0C8C  3085               	movlw	high (STR_40| (0+32768))
  9425     0C8D  00C6               	movwf	clcd_print@str+1
  9426     0C8E  3080               	movlw	128
  9427     0C8F  00C7               	movwf	clcd_print@addr
  9428     0C90  160A  118A  24CC  120A  158A  	fcall	_clcd_print
  9429     0C95                     l4476:
  9430                           
  9431                           ;helper.c: 519:             clcd_print("    TRY AGAIN   ", (0xC0 + 0));
  9432     0C95  3011               	movlw	low (STR_41| (0+32768))
  9433     0C96  1283               	bcf	3,5	;RP0=0, select bank0
  9434     0C97  1303               	bcf	3,6	;RP1=0, select bank0
  9435     0C98  00C5               	movwf	clcd_print@str
  9436     0C99  3085               	movlw	high (STR_41| (0+32768))
  9437     0C9A  00C6               	movwf	clcd_print@str+1
  9438     0C9B  30C0               	movlw	192
  9439     0C9C  00C7               	movwf	clcd_print@addr
  9440     0C9D  160A  118A  24CC  120A  158A  	fcall	_clcd_print
  9441     0CA2                     l4478:
  9442                           
  9443                           ;helper.c: 520:             _delay((unsigned long)((1000)*(20000000/4000.0)));
  9444     0CA2  301A               	movlw	26
  9445     0CA3  1283               	bcf	3,5	;RP0=0, select bank0
  9446     0CA4  1303               	bcf	3,6	;RP1=0, select bank0
  9447     0CA5  00CE               	movwf	??_change_password+2
  9448     0CA6  305E               	movlw	94
  9449     0CA7  00CD               	movwf	??_change_password+1
  9450     0CA8  306D               	movlw	109
  9451     0CA9  00CC               	movwf	??_change_password
  9452     0CAA                     u5037:
  9453     0CAA  0BCC               	decfsz	??_change_password,f
  9454     0CAB  2CAA               	goto	u5037
  9455     0CAC  0BCD               	decfsz	??_change_password+1,f
  9456     0CAD  2CAA               	goto	u5037
  9457     0CAE  0BCE               	decfsz	??_change_password+2,f
  9458     0CAF  2CAA               	goto	u5037
  9459     0CB0  2CB1               	nop2
  9460     0CB1                     l4480:
  9461                           
  9462                           ;helper.c: 521:             clear_screen();
  9463     0CB1  160A  118A  2281  120A  158A  	fcall	_clear_screen
  9464     0CB6                     l4482:
  9465                           
  9466                           ;helper.c: 522:     return 0xA1;
  9467     0CB6  30A1               	movlw	161
  9468     0CB7                     l483:
  9469     0CB7  0008               	return
  9470     0CB8                     __end_of_change_password:
  9471                           
  9472                           	psect	text40
  9473     15E3                     __ptext40:	
  9474 ;; *************** function _strncmp *****************
  9475 ;; Defined at:
  9476 ;;		line 3 in file "C:\Program Files\Microchip\xc8\v3.10\pic\sources\c99\common\strncmp.c"
  9477 ;; Parameters:    Size  Location     Type
  9478 ;;  l               1    3[COMMON] PTR const unsigned char 
  9479 ;;		 -> change_password@password_1(4), check_password@user_pass(4), 
  9480 ;;  r               1    4[COMMON] PTR const unsigned char 
  9481 ;;		 -> change_password@password_2(4), check_password@saved_pass(4), 
  9482 ;;  n               2    5[COMMON] unsigned int 
  9483 ;; Auto vars:     Size  Location     Type
  9484 ;;		None
  9485 ;; Return value:  Size  Location     Type
  9486 ;;                  2    3[COMMON] int 
  9487 ;; Registers used:
  9488 ;;		wreg, fsr0l, fsr0h, status,2, status,0
  9489 ;; Tracked objects:
  9490 ;;		On entry : 0/0
  9491 ;;		On exit  : 0/0
  9492 ;;		Unchanged: 0/0
  9493 ;; Data sizes:     COMMON   BANK0   BANK1   BANK3   BANK2
  9494 ;;      Params:         4       0       0       0       0
  9495 ;;      Locals:         0       0       0       0       0
  9496 ;;      Temps:          0       2       0       0       0
  9497 ;;      Totals:         4       2       0       0       0
  9498 ;;Total ram usage:        6 bytes
  9499 ;; Hardware stack levels used: 1
  9500 ;; Hardware stack levels required when called: 1
  9501 ;; This function calls:
  9502 ;;		Nothing
  9503 ;; This function is called by:
  9504 ;;		_check_password
  9505 ;;		_change_password
  9506 ;; This function uses a non-reentrant model
  9507 ;;
  9508                           
  9509     15E3                     _strncmp:	
  9510                           ;psect for function _strncmp
  9511                           
  9512     15E3                     l3886:	
  9513                           ;incstack = 0
  9514                           ; Regs used in _strncmp: [wreg-fsr0h+status,2+status,0]
  9515                           
  9516     15E3  3001               	movlw	1
  9517     15E4  02F5               	subwf	strncmp@n,f
  9518     15E5  3000               	movlw	0
  9519     15E6  1C03               	skipc
  9520     15E7  03F6               	decf	strncmp@n+1,f
  9521     15E8  02F6               	subwf	strncmp@n+1,f
  9522     15E9  0A75               	incf	strncmp@n,w
  9523     15EA  1D03               	skipz
  9524     15EB  2DF0               	goto	u3681
  9525     15EC  0A76               	incf	strncmp@n+1,w
  9526     15ED  1D03               	btfss	3,2
  9527     15EE  2DF0               	goto	u3681
  9528     15EF  2DF1               	goto	u3680
  9529     15F0                     u3681:
  9530     15F0  2DFE               	goto	l3896
  9531     15F1                     u3680:
  9532     15F1                     l3888:
  9533     15F1  01F3               	clrf	?_strncmp
  9534     15F2  01F4               	clrf	?_strncmp+1
  9535     15F3  2E31               	goto	l1155
  9536     15F4                     l3892:
  9537     15F4  3001               	movlw	1
  9538     15F5  07F3               	addwf	strncmp@l,f
  9539     15F6  3001               	movlw	1
  9540     15F7  07F4               	addwf	strncmp@r,f
  9541     15F8                     l3894:
  9542     15F8  3001               	movlw	1
  9543     15F9  02F5               	subwf	strncmp@n,f
  9544     15FA  3000               	movlw	0
  9545     15FB  1C03               	skipc
  9546     15FC  03F6               	decf	strncmp@n+1,f
  9547     15FD  02F6               	subwf	strncmp@n+1,f
  9548     15FE                     l3896:
  9549     15FE  0873               	movf	strncmp@l,w
  9550     15FF  0084               	movwf	4
  9551     1600  1383               	bcf	3,7	;select IRP bank0
  9552     1601  0800               	movf	0,w
  9553     1602  1903               	btfsc	3,2
  9554     1603  2E05               	goto	u3691
  9555     1604  2E06               	goto	u3690
  9556     1605                     u3691:
  9557     1605  2E21               	goto	l3904
  9558     1606                     u3690:
  9559     1606                     l3898:
  9560     1606  0874               	movf	strncmp@r,w
  9561     1607  0084               	movwf	4
  9562     1608  0800               	movf	0,w
  9563     1609  1903               	btfsc	3,2
  9564     160A  2E0C               	goto	u3701
  9565     160B  2E0D               	goto	u3700
  9566     160C                     u3701:
  9567     160C  2E21               	goto	l3904
  9568     160D                     u3700:
  9569     160D                     l3900:
  9570     160D  0875               	movf	strncmp@n,w
  9571     160E  0476               	iorwf	strncmp@n+1,w
  9572     160F  1903               	btfsc	3,2
  9573     1610  2E12               	goto	u3711
  9574     1611  2E13               	goto	u3710
  9575     1612                     u3711:
  9576     1612  2E21               	goto	l3904
  9577     1613                     u3710:
  9578     1613                     l3902:
  9579     1613  0874               	movf	strncmp@r,w
  9580     1614  0084               	movwf	4
  9581     1615  0800               	movf	0,w
  9582     1616  1283               	bcf	3,5	;RP0=0, select bank0
  9583     1617  1303               	bcf	3,6	;RP1=0, select bank0
  9584     1618  00C5               	movwf	??_strncmp
  9585     1619  0873               	movf	strncmp@l,w
  9586     161A  0084               	movwf	4
  9587     161B  0800               	movf	0,w
  9588     161C  0645               	xorwf	??_strncmp,w
  9589     161D  1903               	skipnz
  9590     161E  2E20               	goto	u3721
  9591     161F  2E21               	goto	u3720
  9592     1620                     u3721:
  9593     1620  2DF4               	goto	l3892
  9594     1621                     u3720:
  9595     1621                     l3904:
  9596     1621  0874               	movf	strncmp@r,w
  9597     1622  0084               	movwf	4
  9598     1623  0800               	movf	0,w
  9599     1624  1283               	bcf	3,5	;RP0=0, select bank0
  9600     1625  1303               	bcf	3,6	;RP1=0, select bank0
  9601     1626  00C5               	movwf	??_strncmp
  9602     1627  0873               	movf	strncmp@l,w
  9603     1628  0084               	movwf	4
  9604     1629  0800               	movf	0,w
  9605     162A  00C6               	movwf	??_strncmp+1
  9606     162B  0845               	movf	??_strncmp,w
  9607     162C  0246               	subwf	??_strncmp+1,w
  9608     162D  00F3               	movwf	?_strncmp
  9609     162E  01F4               	clrf	?_strncmp+1
  9610     162F  1C03               	skipc
  9611     1630  03F4               	decf	?_strncmp+1,f
  9612     1631                     l1155:
  9613     1631  0008               	return
  9614     1632                     __end_of_strncmp:
  9615                           
  9616                           	psect	text41
  9617     12F8                     __ptext41:	
  9618 ;; *************** function _ext_eeprom_24c02_byte_write *****************
  9619 ;; Defined at:
  9620 ;;		line 28 in file "eeprom.c"
  9621 ;; Parameters:    Size  Location     Type
  9622 ;;  addr            1    wreg     unsigned char 
  9623 ;;  data            1    4[COMMON] unsigned char 
  9624 ;; Auto vars:     Size  Location     Type
  9625 ;;  addr            1    5[COMMON] unsigned char 
  9626 ;; Return value:  Size  Location     Type
  9627 ;;                  1    wreg      void 
  9628 ;; Registers used:
  9629 ;;		wreg, status,2, status,0, pclath, cstack
  9630 ;; Tracked objects:
  9631 ;;		On entry : 0/0
  9632 ;;		On exit  : 0/0
  9633 ;;		Unchanged: 0/0
  9634 ;; Data sizes:     COMMON   BANK0   BANK1   BANK3   BANK2
  9635 ;;      Params:         1       0       0       0       0
  9636 ;;      Locals:         1       0       0       0       0
  9637 ;;      Temps:          0       0       0       0       0
  9638 ;;      Totals:         2       0       0       0       0
  9639 ;;Total ram usage:        2 bytes
  9640 ;; Hardware stack levels used: 1
  9641 ;; Hardware stack levels required when called: 1
  9642 ;; This function calls:
  9643 ;;		_i2c_start
  9644 ;;		_i2c_stop
  9645 ;;		_i2c_write
  9646 ;; This function is called by:
  9647 ;;		_change_password
  9648 ;;		_ext_eeprom_24c02_str_write
  9649 ;; This function uses a non-reentrant model
  9650 ;;
  9651                           
  9652     12F8                     _ext_eeprom_24c02_byte_write:	
  9653                           ;psect for function _ext_eeprom_24c02_byte_write
  9654                           
  9655                           
  9656                           ;incstack = 0
  9657                           ; Regs used in _ext_eeprom_24c02_byte_write: [wreg+status,2+status,0+pclath+cstack]
  9658                           ;ext_eeprom_24c02_byte_write@addr stored from wreg
  9659     12F8  00F5               	movwf	ext_eeprom_24c02_byte_write@addr
  9660     12F9                     l3740:
  9661                           
  9662                           ;eeprom.c: 30:     i2c_start();
  9663     12F9  160A  118A  222E  160A  118A  	fcall	_i2c_start
  9664                           
  9665                           ;eeprom.c: 31:     i2c_write(0b10100000);
  9666     12FE  30A0               	movlw	160
  9667     12FF  160A  118A  2253  160A  118A  	fcall	_i2c_write
  9668                           
  9669                           ;eeprom.c: 32:     i2c_write(addr);
  9670     1304  0875               	movf	ext_eeprom_24c02_byte_write@addr,w
  9671     1305  160A  118A  2253  160A  118A  	fcall	_i2c_write
  9672                           
  9673                           ;eeprom.c: 33:     i2c_write(data);
  9674     130A  0874               	movf	ext_eeprom_24c02_byte_write@data,w
  9675     130B  160A  118A  2253  160A  118A  	fcall	_i2c_write
  9676                           
  9677                           ;eeprom.c: 34:     i2c_stop();
  9678     1310  160A  118A  2237  160A  118A  	fcall	_i2c_stop
  9679     1315                     l523:
  9680     1315  0008               	return
  9681     1316                     __end_of_ext_eeprom_24c02_byte_write:
  9682                           
  9683                           	psect	text42
  9684     1253                     __ptext42:	
  9685 ;; *************** function _i2c_write *****************
  9686 ;; Defined at:
  9687 ;;		line 68 in file "i2c.c"
  9688 ;; Parameters:    Size  Location     Type
  9689 ;;  data            1    wreg     unsigned char 
  9690 ;; Auto vars:     Size  Location     Type
  9691 ;;  data            1    3[COMMON] unsigned char 
  9692 ;; Return value:  Size  Location     Type
  9693 ;;                  2   43[None  ] int 
  9694 ;; Registers used:
  9695 ;;		wreg, status,2, status,0, pclath, cstack
  9696 ;; Tracked objects:
  9697 ;;		On entry : 0/0
  9698 ;;		On exit  : 0/0
  9699 ;;		Unchanged: 0/0
  9700 ;; Data sizes:     COMMON   BANK0   BANK1   BANK3   BANK2
  9701 ;;      Params:         0       0       0       0       0
  9702 ;;      Locals:         1       0       0       0       0
  9703 ;;      Temps:          0       0       0       0       0
  9704 ;;      Totals:         1       0       0       0       0
  9705 ;;Total ram usage:        1 bytes
  9706 ;; Hardware stack levels used: 1
  9707 ;; Hardware stack levels required when called: 1
  9708 ;; This function calls:
  9709 ;;		_i2c_wait_for_idle
  9710 ;; This function is called by:
  9711 ;;		_read_ds1307
  9712 ;;		_write_ds1307
  9713 ;;		_ext_eeprom_24C02_read
  9714 ;;		_ext_eeprom_24c02_byte_write
  9715 ;; This function uses a non-reentrant model
  9716 ;;
  9717                           
  9718     1253                     _i2c_write:	
  9719                           ;psect for function _i2c_write
  9720                           
  9721                           
  9722                           ;incstack = 0
  9723                           ; Regs used in _i2c_write: [wreg+status,2+status,0+pclath+cstack]
  9724                           ;i2c_write@data stored from wreg
  9725     1253  00F3               	movwf	i2c_write@data
  9726     1254                     l3618:
  9727     1254  160A  118A  2274  160A  118A  	fcall	_i2c_wait_for_idle
  9728     1259                     l3620:
  9729     1259  0873               	movf	i2c_write@data,w
  9730     125A  1283               	bcf	3,5	;RP0=0, select bank0
  9731     125B  1303               	bcf	3,6	;RP1=0, select bank0
  9732     125C  0093               	movwf	19	;volatile
  9733     125D                     l3622:
  9734     125D                     l110:	
  9735                           ;	Return value of _i2c_write is never used
  9736                           
  9737     125D  0008               	return
  9738     125E                     __end_of_i2c_write:
  9739                           
  9740                           	psect	text43
  9741     1237                     __ptext43:	
  9742 ;; *************** function _i2c_stop *****************
  9743 ;; Defined at:
  9744 ;;		line 43 in file "i2c.c"
  9745 ;; Parameters:    Size  Location     Type
  9746 ;;		None
  9747 ;; Auto vars:     Size  Location     Type
  9748 ;;		None
  9749 ;; Return value:  Size  Location     Type
  9750 ;;                  1    wreg      void 
  9751 ;; Registers used:
  9752 ;;		wreg, status,2, status,0, pclath, cstack
  9753 ;; Tracked objects:
  9754 ;;		On entry : 0/0
  9755 ;;		On exit  : 0/0
  9756 ;;		Unchanged: 0/0
  9757 ;; Data sizes:     COMMON   BANK0   BANK1   BANK3   BANK2
  9758 ;;      Params:         0       0       0       0       0
  9759 ;;      Locals:         0       0       0       0       0
  9760 ;;      Temps:          0       0       0       0       0
  9761 ;;      Totals:         0       0       0       0       0
  9762 ;;Total ram usage:        0 bytes
  9763 ;; Hardware stack levels used: 1
  9764 ;; Hardware stack levels required when called: 1
  9765 ;; This function calls:
  9766 ;;		_i2c_wait_for_idle
  9767 ;; This function is called by:
  9768 ;;		_read_ds1307
  9769 ;;		_write_ds1307
  9770 ;;		_ext_eeprom_24C02_read
  9771 ;;		_ext_eeprom_24c02_byte_write
  9772 ;; This function uses a non-reentrant model
  9773 ;;
  9774                           
  9775     1237                     _i2c_stop:	
  9776                           ;psect for function _i2c_stop
  9777                           
  9778     1237                     l3644:	
  9779                           ;incstack = 0
  9780                           ; Regs used in _i2c_stop: [wreg+status,2+status,0+pclath+cstack]
  9781                           
  9782                           
  9783                           ;i2c.c: 44:     if (ack == 1)
  9784     1237  160A  118A  2274  160A  118A  	fcall	_i2c_wait_for_idle
  9785     123C                     l3646:
  9786                           
  9787                           ;i2c.c: 45:         ACKDT = 1;
  9788     123C  1683               	bsf	3,5	;RP0=1, select bank1
  9789     123D  1303               	bcf	3,6	;RP1=0, select bank1
  9790     123E  1511               	bsf	17,2	;volatile
  9791     123F                     l102:
  9792     123F  0008               	return
  9793     1240                     __end_of_i2c_stop:
  9794                           
  9795                           	psect	text44
  9796     122E                     __ptext44:	
  9797 ;; *************** function _i2c_start *****************
  9798 ;; Defined at:
  9799 ;;		line 33 in file "i2c.c"
  9800 ;; Parameters:    Size  Location     Type
  9801 ;;		None
  9802 ;; Auto vars:     Size  Location     Type
  9803 ;;		None
  9804 ;; Return value:  Size  Location     Type
  9805 ;;                  1    wreg      void 
  9806 ;; Registers used:
  9807 ;;		wreg, status,2, status,0, pclath, cstack
  9808 ;; Tracked objects:
  9809 ;;		On entry : 0/0
  9810 ;;		On exit  : 0/0
  9811 ;;		Unchanged: 0/0
  9812 ;; Data sizes:     COMMON   BANK0   BANK1   BANK3   BANK2
  9813 ;;      Params:         0       0       0       0       0
  9814 ;;      Locals:         0       0       0       0       0
  9815 ;;      Temps:          0       0       0       0       0
  9816 ;;      Totals:         0       0       0       0       0
  9817 ;;Total ram usage:        0 bytes
  9818 ;; Hardware stack levels used: 1
  9819 ;; Hardware stack levels required when called: 1
  9820 ;; This function calls:
  9821 ;;		_i2c_wait_for_idle
  9822 ;; This function is called by:
  9823 ;;		_read_ds1307
  9824 ;;		_write_ds1307
  9825 ;;		_ext_eeprom_24C02_read
  9826 ;;		_ext_eeprom_24c02_byte_write
  9827 ;; This function uses a non-reentrant model
  9828 ;;
  9829                           
  9830     122E                     _i2c_start:	
  9831                           ;psect for function _i2c_start
  9832                           
  9833     122E                     l3614:	
  9834                           ;incstack = 0
  9835                           ; Regs used in _i2c_start: [wreg+status,2+status,0+pclath+cstack]
  9836                           
  9837                           
  9838                           ;i2c.c: 34: unsigned char i2c_read(unsigned char ack) {
  9839     122E  160A  118A  2274  160A  118A  	fcall	_i2c_wait_for_idle
  9840     1233                     l3616:
  9841                           
  9842                           ;i2c.c: 35: 
  9843     1233  1683               	bsf	3,5	;RP0=1, select bank1
  9844     1234  1303               	bcf	3,6	;RP1=0, select bank1
  9845     1235  1411               	bsf	17,0	;volatile
  9846     1236                     l96:
  9847     1236  0008               	return
  9848     1237                     __end_of_i2c_start:
  9849                           
  9850                           	psect	text45
  9851     1274                     __ptext45:	
  9852 ;; *************** function _i2c_wait_for_idle *****************
  9853 ;; Defined at:
  9854 ;;		line 26 in file "i2c.c"
  9855 ;; Parameters:    Size  Location     Type
  9856 ;;		None
  9857 ;; Auto vars:     Size  Location     Type
  9858 ;;		None
  9859 ;; Return value:  Size  Location     Type
  9860 ;;                  1    wreg      void 
  9861 ;; Registers used:
  9862 ;;		wreg, status,2
  9863 ;; Tracked objects:
  9864 ;;		On entry : 0/0
  9865 ;;		On exit  : 0/0
  9866 ;;		Unchanged: 0/0
  9867 ;; Data sizes:     COMMON   BANK0   BANK1   BANK3   BANK2
  9868 ;;      Params:         0       0       0       0       0
  9869 ;;      Locals:         0       0       0       0       0
  9870 ;;      Temps:          0       0       0       0       0
  9871 ;;      Totals:         0       0       0       0       0
  9872 ;;Total ram usage:        0 bytes
  9873 ;; Hardware stack levels used: 1
  9874 ;; Hardware stack levels required when called: 1
  9875 ;; This function calls:
  9876 ;;		Nothing
  9877 ;; This function is called by:
  9878 ;;		_i2c_start
  9879 ;;		_i2c_rep_start
  9880 ;;		_i2c_stop
  9881 ;;		_i2c_read
  9882 ;;		_i2c_write
  9883 ;; This function uses a non-reentrant model
  9884 ;;
  9885                           
  9886     1274                     _i2c_wait_for_idle:	
  9887                           ;psect for function _i2c_wait_for_idle
  9888                           
  9889     1274                     l3610:	
  9890                           ;incstack = 0
  9891                           ; Regs used in _i2c_wait_for_idle: [wreg+status,2]
  9892                           
  9893     1274                     l90:	
  9894                           ;i2c.c: 29: void i2c_stop(void) {
  9895                           
  9896     1274  1683               	bsf	3,5	;RP0=1, select bank1
  9897     1275  1303               	bcf	3,6	;RP1=0, select bank1
  9898     1276  1914               	btfsc	20,2	;volatile
  9899     1277  2A79               	goto	u3311
  9900     1278  2A7A               	goto	u3310
  9901     1279                     u3311:
  9902     1279  2A74               	goto	l90
  9903     127A                     u3310:
  9904     127A                     l3612:
  9905     127A  0811               	movf	17,w	;volatile
  9906     127B  391F               	andlw	31
  9907     127C  1D03               	btfss	3,2
  9908     127D  2A7F               	goto	u3321
  9909     127E  2A80               	goto	u3320
  9910     127F                     u3321:
  9911     127F  2A74               	goto	l90
  9912     1280                     u3320:
  9913     1280                     l93:
  9914     1280  0008               	return
  9915     1281                     __end_of_i2c_wait_for_idle:
  9916                           
  9917                           	psect	text46
  9918     1281                     __ptext46:	
  9919 ;; *************** function _clear_screen *****************
  9920 ;; Defined at:
  9921 ;;		line 88 in file "CLCD.c"
  9922 ;; Parameters:    Size  Location     Type
  9923 ;;		None
  9924 ;; Auto vars:     Size  Location     Type
  9925 ;;		None
  9926 ;; Return value:  Size  Location     Type
  9927 ;;                  1    wreg      void 
  9928 ;; Registers used:
  9929 ;;		wreg, status,2, status,0, pclath, cstack
  9930 ;; Tracked objects:
  9931 ;;		On entry : 0/0
  9932 ;;		On exit  : 0/0
  9933 ;;		Unchanged: 0/0
  9934 ;; Data sizes:     COMMON   BANK0   BANK1   BANK3   BANK2
  9935 ;;      Params:         0       0       0       0       0
  9936 ;;      Locals:         0       0       0       0       0
  9937 ;;      Temps:          0       2       0       0       0
  9938 ;;      Totals:         0       2       0       0       0
  9939 ;;Total ram usage:        2 bytes
  9940 ;; Hardware stack levels used: 1
  9941 ;; Hardware stack levels required when called: 1
  9942 ;; This function calls:
  9943 ;;		_clcd_write
  9944 ;; This function is called by:
  9945 ;;		_main
  9946 ;;		_check_password
  9947 ;;		_menu_screen
  9948 ;;		_view_log
  9949 ;;		_set_time
  9950 ;;		_change_password
  9951 ;; This function uses a non-reentrant model
  9952 ;;
  9953                           
  9954     1281                     _clear_screen:	
  9955                           ;psect for function _clear_screen
  9956                           
  9957     1281                     l3820:	
  9958                           ;incstack = 0
  9959                           ; Regs used in _clear_screen: [wreg+status,2+status,0+pclath+cstack]
  9960                           
  9961                           
  9962                           ;CLCD.c: 90:     clcd_write(0x01, 0);
  9963     1281  01F3               	clrf	clcd_write@mode
  9964     1282  3001               	movlw	1
  9965     1283  160A  118A  2316  160A  118A  	fcall	_clcd_write
  9966     1288                     l3822:
  9967                           
  9968                           ;CLCD.c: 91:     _delay((unsigned long)((500)*(20000000/4000000.0)));
  9969     1288  3004               	movlw	4
  9970     1289  1283               	bcf	3,5	;RP0=0, select bank0
  9971     128A  1303               	bcf	3,6	;RP1=0, select bank0
  9972     128B  00C6               	movwf	??_clear_screen+1
  9973     128C  303D               	movlw	61
  9974     128D  00C5               	movwf	??_clear_screen
  9975     128E                     u5047:
  9976     128E  0BC5               	decfsz	??_clear_screen,f
  9977     128F  2A8E               	goto	u5047
  9978     1290  0BC6               	decfsz	??_clear_screen+1,f
  9979     1291  2A8E               	goto	u5047
  9980     1292                     l35:
  9981     1292  0008               	return
  9982     1293                     __end_of_clear_screen:
  9983                           
  9984                           	psect	text47
  9985     12CD                     __ptext47:	
  9986 ;; *************** function _clcd_putch *****************
  9987 ;; Defined at:
  9988 ;;		line 72 in file "CLCD.c"
  9989 ;; Parameters:    Size  Location     Type
  9990 ;;  data            1    wreg     const unsigned char 
  9991 ;;  addr            1    4[BANK0 ] unsigned char 
  9992 ;; Auto vars:     Size  Location     Type
  9993 ;;  data            1    5[BANK0 ] const unsigned char 
  9994 ;; Return value:  Size  Location     Type
  9995 ;;                  1    wreg      void 
  9996 ;; Registers used:
  9997 ;;		wreg, status,2, status,0, pclath, cstack
  9998 ;; Tracked objects:
  9999 ;;		On entry : 0/0
 10000 ;;		On exit  : 0/0
 10001 ;;		Unchanged: 0/0
 10002 ;; Data sizes:     COMMON   BANK0   BANK1   BANK3   BANK2
 10003 ;;      Params:         0       1       0       0       0
 10004 ;;      Locals:         0       1       0       0       0
 10005 ;;      Temps:          0       0       0       0       0
 10006 ;;      Totals:         0       2       0       0       0
 10007 ;;Total ram usage:        2 bytes
 10008 ;; Hardware stack levels used: 1
 10009 ;; Hardware stack levels required when called: 1
 10010 ;; This function calls:
 10011 ;;		_clcd_write
 10012 ;; This function is called by:
 10013 ;;		_display_time
 10014 ;;		_display_dashboard
 10015 ;;		_check_password
 10016 ;;		_menu_screen
 10017 ;;		_display_log
 10018 ;;		_set_time
 10019 ;;		_change_password
 10020 ;; This function uses a non-reentrant model
 10021 ;;
 10022                           
 10023     12CD                     _clcd_putch:	
 10024                           ;psect for function _clcd_putch
 10025                           
 10026                           
 10027                           ;incstack = 0
 10028                           ; Regs used in _clcd_putch: [wreg+status,2+status,0+pclath+cstack]
 10029                           ;clcd_putch@data stored from wreg
 10030     12CD  1283               	bcf	3,5	;RP0=0, select bank0
 10031     12CE  1303               	bcf	3,6	;RP1=0, select bank0
 10032     12CF  00CA               	movwf	clcd_putch@data
 10033     12D0                     l3702:
 10034                           
 10035                           ;CLCD.c: 74:     clcd_write(addr, 0);
 10036     12D0  01F3               	clrf	clcd_write@mode
 10037     12D1  0849               	movf	clcd_putch@addr,w
 10038     12D2  160A  118A  2316  160A  118A  	fcall	_clcd_write
 10039                           
 10040                           ;CLCD.c: 75:     clcd_write(data, 1);
 10041     12D7  01F3               	clrf	clcd_write@mode
 10042     12D8  0AF3               	incf	clcd_write@mode,f
 10043     12D9  1283               	bcf	3,5	;RP0=0, select bank0
 10044     12DA  1303               	bcf	3,6	;RP1=0, select bank0
 10045     12DB  084A               	movf	clcd_putch@data,w
 10046     12DC  160A  118A  2316  160A  118A  	fcall	_clcd_write
 10047     12E1                     l26:
 10048     12E1  0008               	return
 10049     12E2                     __end_of_clcd_putch:
 10050                           
 10051                           	psect	text48
 10052     14CC                     __ptext48:	
 10053 ;; *************** function _clcd_print *****************
 10054 ;; Defined at:
 10055 ;;		line 79 in file "CLCD.c"
 10056 ;; Parameters:    Size  Location     Type
 10057 ;;  str             2    0[BANK0 ] PTR const unsigned char 
 10058 ;;		 -> STR_41(17), STR_40(17), STR_39(17), STR_38(17), 
 10059 ;;		 -> STR_37(17), STR_36(17), STR_35(16), STR_34(17), 
 10060 ;;		 -> STR_33(17), STR_32(14), STR_31(14), STR_30(17), 
 10061 ;;		 -> STR_29(17), STR_28(17), STR_27(17), STR_26(17), 
 10062 ;;		 -> STR_25(15), STR_24(15), STR_23(15), STR_22(5), 
 10063 ;;		 -> STR_21(10), STR_20(16), STR_19(14), STR_18(17), 
 10064 ;;		 -> STR_17(16), STR_16(9), STR_15(13), STR_14(10), 
 10065 ;;		 -> STR_13(9), STR_12(17), STR_11(17), STR_10(15), 
 10066 ;;		 -> main@event(3), 
 10067 ;;  addr            1    2[BANK0 ] unsigned char 
 10068 ;; Auto vars:     Size  Location     Type
 10069 ;;		None
 10070 ;; Return value:  Size  Location     Type
 10071 ;;                  1    wreg      void 
 10072 ;; Registers used:
 10073 ;;		wreg, fsr0l, fsr0h, status,2, status,0, pclath, btemp1, cstack
 10074 ;; Tracked objects:
 10075 ;;		On entry : 0/0
 10076 ;;		On exit  : 0/0
 10077 ;;		Unchanged: 0/0
 10078 ;; Data sizes:     COMMON   BANK0   BANK1   BANK3   BANK2
 10079 ;;      Params:         0       3       0       0       0
 10080 ;;      Locals:         0       0       0       0       0
 10081 ;;      Temps:          0       0       0       0       0
 10082 ;;      Totals:         0       3       0       0       0
 10083 ;;Total ram usage:        3 bytes
 10084 ;; Hardware stack levels used: 1
 10085 ;; Hardware stack levels required when called: 1
 10086 ;; This function calls:
 10087 ;;		_clcd_write
 10088 ;; This function is called by:
 10089 ;;		_main
 10090 ;;		_display_dashboard
 10091 ;;		_check_password
 10092 ;;		_menu_screen
 10093 ;;		_view_log
 10094 ;;		_clear_log
 10095 ;;		_download_log
 10096 ;;		_set_time
 10097 ;;		_change_password
 10098 ;; This function uses a non-reentrant model
 10099 ;;
 10100                           
 10101     14CC                     _clcd_print:	
 10102                           ;psect for function _clcd_print
 10103                           
 10104     14CC                     l3812:	
 10105                           ;incstack = 0
 10106                           ; Regs used in _clcd_print: [wreg-fsr0h+status,2+status,0+pclath+btemp1+cstack]
 10107                           
 10108                           
 10109                           ;CLCD.c: 81:     clcd_write(addr, 0);
 10110     14CC  01F3               	clrf	clcd_write@mode
 10111     14CD  1283               	bcf	3,5	;RP0=0, select bank0
 10112     14CE  1303               	bcf	3,6	;RP1=0, select bank0
 10113     14CF  0847               	movf	clcd_print@addr,w
 10114     14D0  160A  118A  2316  160A  118A  	fcall	_clcd_write
 10115                           
 10116                           ;CLCD.c: 83:     while (*str != '\0')
 10117     14D5  2CEE               	goto	l3818
 10118     14D6                     l3814:
 10119                           
 10120                           ;CLCD.c: 84:         clcd_write(*str++, 1);
 10121     14D6  01F3               	clrf	clcd_write@mode
 10122     14D7  0AF3               	incf	clcd_write@mode,f
 10123     14D8  0846               	movf	clcd_print@str+1,w
 10124     14D9  00FF               	movwf	btemp1
 10125     14DA  0845               	movf	clcd_print@str,w
 10126     14DB  0084               	movwf	4
 10127     14DC  160A  118A  2000  160A  118A  	fcall	stringtab
 10128     14E1  160A  118A  2316  160A  118A  	fcall	_clcd_write
 10129     14E6                     l3816:
 10130     14E6  3001               	movlw	1
 10131     14E7  1283               	bcf	3,5	;RP0=0, select bank0
 10132     14E8  1303               	bcf	3,6	;RP1=0, select bank0
 10133     14E9  07C5               	addwf	clcd_print@str,f
 10134     14EA  1803               	skipnc
 10135     14EB  0AC6               	incf	clcd_print@str+1,f
 10136     14EC  3000               	movlw	0
 10137     14ED  07C6               	addwf	clcd_print@str+1,f
 10138     14EE                     l3818:
 10139                           
 10140                           ;CLCD.c: 83:     while (*str != '\0')
 10141     14EE  1283               	bcf	3,5	;RP0=0, select bank0
 10142     14EF  1303               	bcf	3,6	;RP1=0, select bank0
 10143     14F0  0846               	movf	clcd_print@str+1,w
 10144     14F1  00FF               	movwf	btemp1
 10145     14F2  0845               	movf	clcd_print@str,w
 10146     14F3  0084               	movwf	4
 10147     14F4  160A  118A  2000  160A  118A  	fcall	stringtab
 10148     14F9  3A00               	xorlw	0
 10149     14FA  1D03               	skipz
 10150     14FB  2CFD               	goto	u3591
 10151     14FC  2CFE               	goto	u3590
 10152     14FD                     u3591:
 10153     14FD  2CD6               	goto	l3814
 10154     14FE                     u3590:
 10155     14FE                     l32:
 10156     14FE  0008               	return
 10157     14FF                     __end_of_clcd_print:
 10158                           
 10159                           	psect	text49
 10160     1316                     __ptext49:	
 10161 ;; *************** function _clcd_write *****************
 10162 ;; Defined at:
 10163 ;;		line 11 in file "CLCD.c"
 10164 ;; Parameters:    Size  Location     Type
 10165 ;;  byte            1    wreg     unsigned char 
 10166 ;;  mode            1    3[COMMON] unsigned char 
 10167 ;; Auto vars:     Size  Location     Type
 10168 ;;  byte            1    6[COMMON] unsigned char 
 10169 ;; Return value:  Size  Location     Type
 10170 ;;                  1    wreg      void 
 10171 ;; Registers used:
 10172 ;;		wreg
 10173 ;; Tracked objects:
 10174 ;;		On entry : 0/0
 10175 ;;		On exit  : 0/0
 10176 ;;		Unchanged: 0/0
 10177 ;; Data sizes:     COMMON   BANK0   BANK1   BANK3   BANK2
 10178 ;;      Params:         1       0       0       0       0
 10179 ;;      Locals:         1       0       0       0       0
 10180 ;;      Temps:          2       0       0       0       0
 10181 ;;      Totals:         4       0       0       0       0
 10182 ;;Total ram usage:        4 bytes
 10183 ;; Hardware stack levels used: 1
 10184 ;; Hardware stack levels required when called: 1
 10185 ;; This function calls:
 10186 ;;		Nothing
 10187 ;; This function is called by:
 10188 ;;		_init_display_controller
 10189 ;;		_clcd_putch
 10190 ;;		_clcd_print
 10191 ;;		_clear_screen
 10192 ;;		_main
 10193 ;;		_check_password
 10194 ;;		_change_password
 10195 ;; This function uses a non-reentrant model
 10196 ;;
 10197                           
 10198     1316                     _clcd_write:	
 10199                           ;psect for function _clcd_write
 10200                           
 10201                           
 10202                           ;incstack = 0
 10203                           ; Regs used in _clcd_write: [wreg]
 10204                           ;clcd_write@byte stored from wreg
 10205     1316  00F6               	movwf	clcd_write@byte
 10206     1317                     l3648:
 10207                           
 10208                           ;CLCD.c: 12:     RE2 = mode;
 10209     1317  1873               	btfsc	clcd_write@mode,0
 10210     1318  2B1A               	goto	u3341
 10211     1319  2B1E               	goto	u3340
 10212     131A                     u3341:
 10213     131A  1283               	bcf	3,5	;RP0=0, select bank0
 10214     131B  1303               	bcf	3,6	;RP1=0, select bank0
 10215     131C  1509               	bsf	9,2	;volatile
 10216     131D  2B21               	goto	u3354
 10217     131E                     u3340:
 10218     131E  1283               	bcf	3,5	;RP0=0, select bank0
 10219     131F  1303               	bcf	3,6	;RP1=0, select bank0
 10220     1320  1109               	bcf	9,2	;volatile
 10221     1321                     u3354:
 10222     1321                     l3650:
 10223                           
 10224                           ;CLCD.c: 13:     PORTD = byte;
 10225     1321  0876               	movf	clcd_write@byte,w
 10226     1322  0088               	movwf	8	;volatile
 10227     1323                     l3652:
 10228                           
 10229                           ;CLCD.c: 15:     RE1 = 1;
 10230     1323  1489               	bsf	9,1	;volatile
 10231                           
 10232                           ;CLCD.c: 16:     _delay((unsigned long)((100)*(20000000/4000000.0)));
 10233     1324  30A6               	movlw	166
 10234     1325  00F4               	movwf	??_clcd_write
 10235     1326                     u5057:
 10236     1326  0BF4               	decfsz	??_clcd_write,f
 10237     1327  2B26               	goto	u5057
 10238     1328  0000               	nop
 10239     1329                     l3654:
 10240                           
 10241                           ;CLCD.c: 17:     RE1 = 0;
 10242     1329  1283               	bcf	3,5	;RP0=0, select bank0
 10243     132A  1303               	bcf	3,6	;RP1=0, select bank0
 10244     132B  1089               	bcf	9,1	;volatile
 10245                           
 10246                           ;CLCD.c: 19:     _delay((unsigned long)((4100)*(20000000/4000000.0)));
 10247     132C  301B               	movlw	27
 10248     132D  00F5               	movwf	??_clcd_write+1
 10249     132E  309E               	movlw	158
 10250     132F  00F4               	movwf	??_clcd_write
 10251     1330                     u5067:
 10252     1330  0BF4               	decfsz	??_clcd_write,f
 10253     1331  2B30               	goto	u5067
 10254     1332  0BF5               	decfsz	??_clcd_write+1,f
 10255     1333  2B30               	goto	u5067
 10256     1334  0000               	nop
 10257     1335                     l17:
 10258     1335  0008               	return
 10259     1336                     __end_of_clcd_write:
 10260                           
 10261                           	psect	text50
 10262     159F                     __ptext50:	
 10263 ;; *************** function ___lwdiv *****************
 10264 ;; Defined at:
 10265 ;;		line 5 in file "C:\Program Files\Microchip\xc8\v3.10\pic\sources\c99\common\lwdiv.c"
 10266 ;; Parameters:    Size  Location     Type
 10267 ;;  divisor         2    3[BANK0 ] unsigned int 
 10268 ;;  dividend        2    5[BANK0 ] unsigned int 
 10269 ;; Auto vars:     Size  Location     Type
 10270 ;;  quotient        2    8[BANK0 ] unsigned int 
 10271 ;;  counter         1    7[BANK0 ] unsigned char 
 10272 ;; Return value:  Size  Location     Type
 10273 ;;                  2    3[BANK0 ] unsigned int 
 10274 ;; Registers used:
 10275 ;;		wreg, status,2, status,0
 10276 ;; Tracked objects:
 10277 ;;		On entry : 0/0
 10278 ;;		On exit  : 0/0
 10279 ;;		Unchanged: 0/0
 10280 ;; Data sizes:     COMMON   BANK0   BANK1   BANK3   BANK2
 10281 ;;      Params:         0       4       0       0       0
 10282 ;;      Locals:         0       3       0       0       0
 10283 ;;      Temps:          0       0       0       0       0
 10284 ;;      Totals:         0       7       0       0       0
 10285 ;;Total ram usage:        7 bytes
 10286 ;; Hardware stack levels used: 1
 10287 ;; Hardware stack levels required when called: 1
 10288 ;; This function calls:
 10289 ;;		Nothing
 10290 ;; This function is called by:
 10291 ;;		_main
 10292 ;; This function uses a non-reentrant model
 10293 ;;
 10294                           
 10295     159F                     ___lwdiv:	
 10296                           ;psect for function ___lwdiv
 10297                           
 10298     159F                     l4552:	
 10299                           ;incstack = 0
 10300                           ; Regs used in ___lwdiv: [wreg+status,2+status,0]
 10301                           
 10302     159F  1283               	bcf	3,5	;RP0=0, select bank0
 10303     15A0  1303               	bcf	3,6	;RP1=0, select bank0
 10304     15A1  01CD               	clrf	___lwdiv@quotient
 10305     15A2  01CE               	clrf	___lwdiv@quotient+1
 10306     15A3                     l4554:
 10307     15A3  0848               	movf	___lwdiv@divisor,w
 10308     15A4  0449               	iorwf	___lwdiv@divisor+1,w
 10309     15A5  1903               	btfsc	3,2
 10310     15A6  2DA8               	goto	u4561
 10311     15A7  2DA9               	goto	u4560
 10312     15A8                     u4561:
 10313     15A8  2DDE               	goto	l4574
 10314     15A9                     u4560:
 10315     15A9                     l4556:
 10316     15A9  3001               	movlw	1
 10317     15AA  00CC               	movwf	___lwdiv@counter
 10318     15AB  2DB5               	goto	l4562
 10319     15AC                     l4558:
 10320     15AC  3001               	movlw	1
 10321     15AD                     u4575:
 10322     15AD  1003               	clrc
 10323     15AE  0DC8               	rlf	___lwdiv@divisor,f
 10324     15AF  0DC9               	rlf	___lwdiv@divisor+1,f
 10325     15B0  3EFF               	addlw	-1
 10326     15B1  1D03               	skipz
 10327     15B2  2DAD               	goto	u4575
 10328     15B3                     l4560:
 10329     15B3  3001               	movlw	1
 10330     15B4  07CC               	addwf	___lwdiv@counter,f
 10331     15B5                     l4562:
 10332     15B5  1FC9               	btfss	___lwdiv@divisor+1,7
 10333     15B6  2DB8               	goto	u4581
 10334     15B7  2DB9               	goto	u4580
 10335     15B8                     u4581:
 10336     15B8  2DAC               	goto	l4558
 10337     15B9                     u4580:
 10338     15B9                     l4564:
 10339     15B9  3001               	movlw	1
 10340     15BA                     u4595:
 10341     15BA  1003               	clrc
 10342     15BB  0DCD               	rlf	___lwdiv@quotient,f
 10343     15BC  0DCE               	rlf	___lwdiv@quotient+1,f
 10344     15BD  3EFF               	addlw	-1
 10345     15BE  1D03               	skipz
 10346     15BF  2DBA               	goto	u4595
 10347     15C0  0849               	movf	___lwdiv@divisor+1,w
 10348     15C1  024B               	subwf	___lwdiv@dividend+1,w
 10349     15C2  1D03               	skipz
 10350     15C3  2DC6               	goto	u4605
 10351     15C4  0848               	movf	___lwdiv@divisor,w
 10352     15C5  024A               	subwf	___lwdiv@dividend,w
 10353     15C6                     u4605:
 10354     15C6  1C03               	skipc
 10355     15C7  2DC9               	goto	u4601
 10356     15C8  2DCA               	goto	u4600
 10357     15C9                     u4601:
 10358     15C9  2DD1               	goto	l4570
 10359     15CA                     u4600:
 10360     15CA                     l4566:
 10361     15CA  0848               	movf	___lwdiv@divisor,w
 10362     15CB  02CA               	subwf	___lwdiv@dividend,f
 10363     15CC  0849               	movf	___lwdiv@divisor+1,w
 10364     15CD  1C03               	skipc
 10365     15CE  03CB               	decf	___lwdiv@dividend+1,f
 10366     15CF  02CB               	subwf	___lwdiv@dividend+1,f
 10367     15D0                     l4568:
 10368     15D0  144D               	bsf	___lwdiv@quotient,0
 10369     15D1                     l4570:
 10370     15D1  3001               	movlw	1
 10371     15D2                     u4615:
 10372     15D2  1003               	clrc
 10373     15D3  0CC9               	rrf	___lwdiv@divisor+1,f
 10374     15D4  0CC8               	rrf	___lwdiv@divisor,f
 10375     15D5  3EFF               	addlw	-1
 10376     15D6  1D03               	skipz
 10377     15D7  2DD2               	goto	u4615
 10378     15D8                     l4572:
 10379     15D8  3001               	movlw	1
 10380     15D9  02CC               	subwf	___lwdiv@counter,f
 10381     15DA  1D03               	btfss	3,2
 10382     15DB  2DDD               	goto	u4621
 10383     15DC  2DDE               	goto	u4620
 10384     15DD                     u4621:
 10385     15DD  2DB9               	goto	l4564
 10386     15DE                     u4620:
 10387     15DE                     l4574:
 10388     15DE  084E               	movf	___lwdiv@quotient+1,w
 10389     15DF  00C9               	movwf	?___lwdiv+1
 10390     15E0  084D               	movf	___lwdiv@quotient,w
 10391     15E1  00C8               	movwf	?___lwdiv
 10392     15E2                     l969:
 10393     15E2  0008               	return
 10394     15E3                     __end_of___lwdiv:
 10395                           
 10396                           	psect	text51
 10397     1632                     __ptext51:	
 10398 ;; *************** function _isr *****************
 10399 ;; Defined at:
 10400 ;;		line 16 in file "isr.c"
 10401 ;; Parameters:    Size  Location     Type
 10402 ;;		None
 10403 ;; Auto vars:     Size  Location     Type
 10404 ;;  current         1    2[COMMON] unsigned char 
 10405 ;; Return value:  Size  Location     Type
 10406 ;;                  1    wreg      void 
 10407 ;; Registers used:
 10408 ;;		wreg, status,2, status,0
 10409 ;; Tracked objects:
 10410 ;;		On entry : 0/0
 10411 ;;		On exit  : 0/0
 10412 ;;		Unchanged: 0/0
 10413 ;; Data sizes:     COMMON   BANK0   BANK1   BANK3   BANK2
 10414 ;;      Params:         0       0       0       0       0
 10415 ;;      Locals:         1       0       0       0       0
 10416 ;;      Temps:          2       0       0       0       0
 10417 ;;      Totals:         3       0       0       0       0
 10418 ;;Total ram usage:        3 bytes
 10419 ;; Hardware stack levels used: 1
 10420 ;; This function calls:
 10421 ;;		Nothing
 10422 ;; This function is called by:
 10423 ;;		Interrupt level 1
 10424 ;; This function uses a non-reentrant model
 10425 ;;
 10426                           
 10427     1632                     _isr:	
 10428                           ;psect for function _isr
 10429                           
 10430     1632                     i1l3582:
 10431                           
 10432                           ;isr.c: 18:     static unsigned int count;;isr.c: 19:     static unsigned int hold_count
      +                          ;;isr.c: 21:     if (TMR2IF) {
 10433     1632  1283               	bcf	3,5	;RP0=0, select bank0
 10434     1633  1303               	bcf	3,6	;RP1=0, select bank0
 10435     1634  1C8C               	btfss	12,1	;volatile
 10436     1635  2E37               	goto	u325_21
 10437     1636  2E38               	goto	u325_20
 10438     1637                     u325_21:
 10439     1637  2E7B               	goto	i1l568
 10440     1638                     u325_20:
 10441     1638                     i1l3584:
 10442                           
 10443                           ;isr.c: 23:         if (++count == 20000) {
 10444     1638  3001               	movlw	1
 10445     1639  07A5               	addwf	isr@count,f
 10446     163A  1803               	skipnc
 10447     163B  0AA6               	incf	isr@count+1,f
 10448     163C  3000               	movlw	0
 10449     163D  07A6               	addwf	isr@count+1,f
 10450     163E  3020               	movlw	32
 10451     163F  0625               	xorwf	isr@count,w
 10452     1640  304E               	movlw	78
 10453     1641  1903               	skipnz
 10454     1642  0626               	xorwf	isr@count+1,w
 10455     1643  1D03               	btfss	3,2
 10456     1644  2E46               	goto	u326_21
 10457     1645  2E47               	goto	u326_20
 10458     1646                     u326_21:
 10459     1646  2E57               	goto	i1l3594
 10460     1647                     u326_20:
 10461     1647                     i1l3586:
 10462                           
 10463                           ;isr.c: 24:             count = 0;
 10464     1647  01A5               	clrf	isr@count
 10465     1648  01A6               	clrf	isr@count+1
 10466     1649                     i1l3588:
 10467                           
 10468                           ;isr.c: 25:             if (return_time > 0) return_time--;
 10469     1649  0834               	movf	_return_time,w
 10470     164A  1903               	btfsc	3,2
 10471     164B  2E4D               	goto	u327_21
 10472     164C  2E4E               	goto	u327_20
 10473     164D                     u327_21:
 10474     164D  2E50               	goto	i1l563
 10475     164E                     u327_20:
 10476     164E                     i1l3590:
 10477     164E  3001               	movlw	1
 10478     164F  02B4               	subwf	_return_time,f
 10479     1650                     i1l563:
 10480                           
 10481                           ;isr.c: 26:             if (wait_time > 0) wait_time--;
 10482     1650  0833               	movf	_wait_time,w
 10483     1651  1903               	btfsc	3,2
 10484     1652  2E54               	goto	u328_21
 10485     1653  2E55               	goto	u328_20
 10486     1654                     u328_21:
 10487     1654  2E57               	goto	i1l3594
 10488     1655                     u328_20:
 10489     1655                     i1l3592:
 10490     1655  3001               	movlw	1
 10491     1656  02B3               	subwf	_wait_time,f
 10492     1657                     i1l3594:
 10493                           
 10494                           ;isr.c: 30:         unsigned char current = PORTB & 0x3F;
 10495     1657  0806               	movf	6,w	;volatile
 10496     1658  00F2               	movwf	isr@current
 10497     1659                     i1l3596:
 10498     1659  303F               	movlw	63
 10499     165A  05F2               	andwf	isr@current,f
 10500     165B                     i1l3598:
 10501                           
 10502                           ;isr.c: 31:         if (current != 0x3F) {
 10503     165B  303F               	movlw	63
 10504     165C  0672               	xorwf	isr@current,w
 10505     165D  1903               	btfsc	3,2
 10506     165E  2E60               	goto	u329_21
 10507     165F  2E61               	goto	u329_20
 10508     1660                     u329_21:
 10509     1660  2E77               	goto	i1l565
 10510     1661                     u329_20:
 10511     1661                     i1l3600:
 10512                           
 10513                           ;isr.c: 32:             held_key = current;
 10514     1661  0872               	movf	isr@current,w
 10515     1662  00FA               	movwf	_held_key	;volatile
 10516                           
 10517                           ;isr.c: 33:             if (++hold_count >= 10000) {
 10518     1663  3001               	movlw	1
 10519     1664  07A3               	addwf	isr@hold_count,f
 10520     1665  1803               	skipnc
 10521     1666  0AA4               	incf	isr@hold_count+1,f
 10522     1667  3000               	movlw	0
 10523     1668  07A4               	addwf	isr@hold_count+1,f
 10524     1669  3027               	movlw	39
 10525     166A  0224               	subwf	isr@hold_count+1,w
 10526     166B  3010               	movlw	16
 10527     166C  1903               	skipnz
 10528     166D  0223               	subwf	isr@hold_count,w
 10529     166E  1C03               	skipc
 10530     166F  2E71               	goto	u330_21
 10531     1670  2E72               	goto	u330_20
 10532     1671                     u330_21:
 10533     1671  2E7A               	goto	i1l3608
 10534     1672                     u330_20:
 10535     1672                     i1l3602:
 10536                           
 10537                           ;isr.c: 34:                 long_press = 1;
 10538     1672  3001               	movlw	1
 10539     1673  00F8               	movwf	_long_press	;volatile
 10540     1674                     i1l3604:
 10541                           
 10542                           ;isr.c: 35:                 hold_count = 0;
 10543     1674  01A3               	clrf	isr@hold_count
 10544     1675  01A4               	clrf	isr@hold_count+1
 10545     1676  2E7A               	goto	i1l3608
 10546     1677                     i1l565:
 10547                           
 10548                           ;isr.c: 38:             held_key = 0x3F;
 10549     1677  303F               	movlw	63
 10550     1678  00FA               	movwf	_held_key	;volatile
 10551     1679  2E74               	goto	i1l3604
 10552     167A                     i1l3608:
 10553                           
 10554                           ;isr.c: 43:         TMR2IF = 0;
 10555     167A  108C               	bcf	12,1	;volatile
 10556     167B                     i1l568:
 10557     167B  0871               	movf	??_isr+1,w
 10558     167C  008A               	movwf	10
 10559     167D  0E70               	swapf	??_isr,w
 10560     167E  0083               	movwf	3
 10561     167F  0EFE               	swapf	btemp,f
 10562     1680  0E7E               	swapf	btemp,w
 10563     1681  0009               	retfie
 10564     1682                     __end_of_isr:
 10565     0002                     ___latbits      equ	2
 10566     007E                     btemp           set	126	;btemp
 10567     007E                     btemp0          set	126
 10568     007F                     btemp1          set	127
 10569     007E                     wtemp0          set	126
 10570     007F                     wtemp0a         set	127
 10571     007F                     ttemp0a         set	127
 10572     0080                     ltemp0a         set	128
 10573                           
 10574                           	psect	intentry
 10575     0004                     __pintentry:	
 10576                           ;incstack = 0
 10577                           ; Regs used in _isr: [wreg+status,2+status,0]
 10578                           
 10579     0004                     interrupt_function:
 10580     007E                     saved_w         set	btemp
 10581     0004  00FE               	movwf	btemp
 10582     0005  0E03               	swapf	3,w
 10583     0006  00F0               	movwf	??_isr
 10584     0007  080A               	movf	10,w
 10585     0008  00F1               	movwf	??_isr+1
 10586     0009  160A  118A  2E32   	ljmp	_isr
 10587                           
 10588                           	psect	idloc
 10589                           
 10590                           ;Config register IDLOC0 @ 0x2000
 10591                           ;	unspecified, using default values
 10592     2000                     	org	8192
 10593     2000  3FFF               	dw	16383
 10594                           
 10595                           ;Config register IDLOC1 @ 0x2001
 10596                           ;	unspecified, using default values
 10597     2001                     	org	8193
 10598     2001  3FFF               	dw	16383
 10599                           
 10600                           ;Config register IDLOC2 @ 0x2002
 10601                           ;	unspecified, using default values
 10602     2002                     	org	8194
 10603     2002  3FFF               	dw	16383
 10604                           
 10605                           ;Config register IDLOC3 @ 0x2003
 10606                           ;	unspecified, using default values
 10607     2003                     	org	8195
 10608     2003  3FFF               	dw	16383
 10609                           
 10610                           	psect	config
 10611                           
 10612                           ;Config register CONFIG @ 0x2007
 10613                           ;	Oscillator Selection bits
 10614                           ;	FOSC = 0x3, unprogrammed default
 10615                           ;	Watchdog Timer Enable bit
 10616                           ;	WDTE = OFF, WDT disabled
 10617                           ;	Power-up Timer Enable bit
 10618                           ;	PWRTE = 0x1, unprogrammed default
 10619                           ;	Brown-out Reset Enable bit
 10620                           ;	BOREN = 0x1, unprogrammed default
 10621                           ;	Low-Voltage (Single-Supply) In-Circuit Serial Programming Enable bit
 10622                           ;	LVP = 0x1, unprogrammed default
 10623                           ;	Data EEPROM Memory Code Protection bit
 10624                           ;	CPD = 0x1, unprogrammed default
 10625                           ;	Flash Program Memory Write Enable bits
 10626                           ;	WRT = 0x3, unprogrammed default
 10627                           ;	In-Circuit Debugger Mode bit
 10628                           ;	DEBUG = 0x1, unprogrammed default
 10629                           ;	Flash Program Memory Code Protection bit
 10630                           ;	CP = 0x1, unprogrammed default
 10631     2007                     	org	8199
 10632     2007  3FFB               	dw	16379

Data Sizes:
    Strings     471
    Constant    0
    Data        29
    BSS         79
    Persistent  0
    Stack       0

Auto Spaces:
    Space          Size  Autos    Used
    COMMON           14      7      11
    BANK0            80     28      70
    BANK1            80     12      74
    BANK3            96      0       0
    BANK2            96      0       0

Pointer List with Targets:

    clcd_print@str	PTR const unsigned char  size(2) Largest target is 17
		 -> main@event(BANK1[3]), STR_10(CODE[15]), STR_11(CODE[17]), STR_12(CODE[17]), 
		 -> STR_13(CODE[9]), STR_14(CODE[10]), STR_15(CODE[13]), STR_16(CODE[9]), 
		 -> STR_17(CODE[16]), STR_18(CODE[17]), STR_19(CODE[14]), STR_20(CODE[16]), 
		 -> STR_21(CODE[10]), STR_22(CODE[5]), STR_23(CODE[15]), STR_24(CODE[15]), 
		 -> STR_25(CODE[15]), STR_26(CODE[17]), STR_27(CODE[17]), STR_28(CODE[17]), 
		 -> STR_29(CODE[17]), STR_30(CODE[17]), STR_31(CODE[14]), STR_32(CODE[14]), 
		 -> STR_33(CODE[17]), STR_34(CODE[17]), STR_35(CODE[16]), STR_36(CODE[17]), 
		 -> STR_37(CODE[17]), STR_38(CODE[17]), STR_39(CODE[17]), STR_40(CODE[17]), 
		 -> STR_41(CODE[17]), 

    display_dashboard@event	PTR unsigned char  size(1) Largest target is 3
		 -> main@event(BANK1[3]), 

    ext_eeprom_24c02_str_write@str	PTR unsigned char  size(2) Largest target is 11
		 -> log(BANK1[11]), STR_8(CODE[5]), 

    gear	PTR unsigned char [6] size(2) Largest target is 3
		 -> STR_1(CODE[3]), STR_2(CODE[3]), STR_3(CODE[3]), STR_4(CODE[3]), 
		 -> STR_5(CODE[3]), STR_6(CODE[3]), 

    log_event@event	PTR unsigned char  size(1) Largest target is 3
		 -> main@event(BANK1[3]), 

    menu	PTR unsigned char [5] size(2) Largest target is 16
		 -> STR_13(CODE[9]), STR_14(CODE[10]), STR_15(CODE[13]), STR_16(CODE[9]), 
		 -> STR_17(CODE[16]), 

    puts@s	PTR const unsigned char  size(2) Largest target is 16
		 -> STR_7(CODE[16]), 

    sp__strcpy	PTR unsigned char  size(1) Largest target is 7
		 -> main@event(BANK1[3]), set_time@newTime(BANK1[7]), 

    sp__strncpy	PTR unsigned char  size(1) Largest target is 11
		 -> log(BANK1[11]), 

    strcpy@d	PTR unsigned char  size(1) Largest target is 7
		 -> main@event(BANK1[3]), set_time@newTime(BANK1[7]), 

    strcpy@dest	PTR unsigned char  size(1) Largest target is 7
		 -> main@event(BANK1[3]), set_time@newTime(BANK1[7]), 

    strcpy@src	PTR const unsigned char  size(2) Largest target is 7
		 -> STR_1(CODE[3]), STR_2(CODE[3]), STR_3(CODE[3]), STR_4(CODE[3]), 
		 -> STR_5(CODE[3]), STR_6(CODE[3]), STR_9(CODE[3]), time(BANK1[7]), 

    strncmp@l	PTR const unsigned char  size(1) Largest target is 4
		 -> change_password@password_1(BANK0[4]), check_password@user_pass(BANK0[4]), 

    strncmp@r	PTR const unsigned char  size(1) Largest target is 4
		 -> change_password@password_2(BANK0[4]), check_password@saved_pass(BANK1[4]), 

    strncpy@cp	PTR unsigned char  size(1) Largest target is 11
		 -> log(BANK1[11]), 

    strncpy@d	PTR unsigned char  size(1) Largest target is 11
		 -> log(BANK1[11]), 

    strncpy@s	PTR const unsigned char  size(1) Largest target is 7
		 -> main@event(BANK1[3]), time(BANK1[7]), 


Critical Paths under _main in COMMON

    _main->___awdiv
    _main->___awmod
    _main->_clcd_write
    _main->_ext_eeprom_24c02_str_write
    _main->_strcpy
    _display_log->___awmod
    _set_time->___awdiv
    _set_time->___awmod
    _set_time->_strcpy
    _log_event->___awdiv
    _log_event->___awmod
    _log_event->_ext_eeprom_24c02_str_write
    _log_event->_strncpy
    _ext_eeprom_24c02_str_write->_ext_eeprom_24c02_byte_write
    _init_uart->___lldiv
    _init_i2c->___lldiv
    _init_ds1307->_read_ds1307
    _write_ds1307->___awdiv
    _write_ds1307->___awmod
    _init_display_controller->_clcd_write
    _get_log->_ext_eeprom_24C02_read
    _display_uart->___awmod
    _putchar->___awmod
    _display_dashboard->___awdiv
    _display_dashboard->___awmod
    _get_time->_read_ds1307
    _read_ds1307->_i2c_read
    _check_password->___awdiv
    _check_password->___awmod
    _check_password->_clcd_write
    _check_password->_ext_eeprom_24C02_read
    _check_password->_strncmp
    _ext_eeprom_24C02_read->_i2c_read
    _change_password->_clcd_write
    _change_password->_strncmp
    _ext_eeprom_24c02_byte_write->_i2c_write
    _clear_screen->_clcd_write
    _clcd_putch->___awdiv
    _clcd_putch->___awmod
    _clcd_putch->_clcd_write
    _clcd_print->_clcd_write
    ___lwdiv->_read_adc

Critical Paths under _isr in COMMON

    None.

Critical Paths under _main in BANK0

    _view_log->_display_log
    _display_log->_clcd_putch
    _set_time->_clcd_putch
    _menu_screen->_clcd_putch
    _log_event->___awdiv
    _init_config->_init_i2c
    _init_config->_init_uart
    _puts->_putchar
    _init_uart->___lldiv
    _init_i2c->___lldiv
    _init_ds1307->_write_ds1307
    _write_ds1307->___awdiv
    _init_clcd->_init_display_controller
    _download_log->_display_uart
    _display_uart->_putchar
    _putchar->___awmod
    _display_dashboard->_clcd_putch
    _display_time->_clcd_putch
    _clear_log->_clcd_print
    _check_password->_clcd_putch
    _change_password->_clcd_putch
    _clcd_putch->___awdiv
    ___lwdiv->_read_adc

Critical Paths under _isr in BANK0

    None.

Critical Paths under _main in BANK1

    None.

Critical Paths under _isr in BANK1

    None.

Critical Paths under _main in BANK3

    None.

Critical Paths under _isr in BANK3

    None.

Critical Paths under _main in BANK2

    None.

Critical Paths under _isr in BANK2

    None.

Call Graph Tables:

 ---------------------------------------------------------------------------------
 (Depth) Function   	        Calls       Base Space   Used Autos Params    Refs
 ---------------------------------------------------------------------------------
 (0) _main                                                21    21      0   23700
                                             21 BANK0      7     7      0
                                              0 BANK1     12    12      0
                            ___awdiv
                            ___awmod
                            ___lwdiv
                    _change_password
                     _check_password
                         _clcd_print
                         _clcd_write
                          _clear_log
                       _clear_screen
                  _display_dashboard
                       _download_log
         _ext_eeprom_24c02_str_write
                        _init_config
                          _log_event
                        _menu_screen
                           _read_adc
                _read_digital_keypad
                           _set_time
                             _strcpy
                           _view_log
                       _write_ds1307
 ---------------------------------------------------------------------------------
 (1) _view_log                                             5     4      1    2313
                                              9 BANK0      5     4      1
                         _clcd_print
                       _clear_screen
                        _display_log
 ---------------------------------------------------------------------------------
 (2) _display_log                                          3     3      0    1577
                                              6 BANK0      3     3      0
                            ___awmod
                         _clcd_putch
                            _get_log
 ---------------------------------------------------------------------------------
 (1) _set_time                                             4     3      1    2634
                                              6 BANK0      4     3      1
                            ___awdiv
                            ___awmod
                             ___bmul
                         _clcd_print
                         _clcd_putch
                       _clear_screen
                           _get_time
                             _strcpy
 ---------------------------------------------------------------------------------
 (3) _strcpy                                               7     4      3     127
                                              3 COMMON     4     1      3
                                              0 BANK0      3     3      0
 ---------------------------------------------------------------------------------
 (1) _read_digital_keypad                                  3     3      0     537
                                              3 COMMON     3     3      0
 ---------------------------------------------------------------------------------
 (1) _read_adc                                             6     4      2      81
                                              3 COMMON     3     1      2
                                              0 BANK0      3     3      0
 ---------------------------------------------------------------------------------
 (1) _menu_screen                                          4     3      1    1114
                                              6 BANK0      4     3      1
                         _clcd_print
                         _clcd_putch
                       _clear_screen
 ---------------------------------------------------------------------------------
 (1) _log_event                                            5     3      2    2013
                                              4 BANK0      5     3      2
                            ___awdiv
                            ___awmod
                             ___bmul
         _ext_eeprom_24c02_str_write
                           _get_time
                            _strncpy
 ---------------------------------------------------------------------------------
 (2) _strncpy                                              6     2      4     220
                                              3 COMMON     4     0      4
                                              0 BANK0      2     2      0
 ---------------------------------------------------------------------------------
 (2) _ext_eeprom_24c02_str_write                           3     1      2     255
                                              6 COMMON     1     1      0
                                              0 BANK0      2     0      2
        _ext_eeprom_24c02_byte_write
 ---------------------------------------------------------------------------------
 (1) _init_config                                          0     0      0    1240
                           _init_adc
                          _init_clcd
                _init_digital_keypad
                        _init_ds1307
                           _init_i2c
                        _init_timer2
                          _init_uart
                               _puts
 ---------------------------------------------------------------------------------
 (2) _puts                                                 2     0      2     115
                                              3 BANK0      2     0      2
                            _putchar
 ---------------------------------------------------------------------------------
 (2) _init_uart                                            8     4      4     287
                                             13 BANK0      8     4      4
                            ___lldiv
 ---------------------------------------------------------------------------------
 (2) _init_timer2                                          0     0      0       0
 ---------------------------------------------------------------------------------
 (2) _init_i2c                                             8     4      4     287
                                             13 BANK0      8     4      4
                            ___lldiv
 ---------------------------------------------------------------------------------
 (3) ___lldiv                                             14     6      8     253
                                              3 COMMON     1     1      0
                                              0 BANK0     13     5      8
 ---------------------------------------------------------------------------------
 (2) _init_ds1307                                          1     1      0     383
                                              6 BANK0      1     1      0
                        _read_ds1307
                       _write_ds1307
 ---------------------------------------------------------------------------------
 (3) _write_ds1307                                         2     1      1     137
                                              4 BANK0      2     1      1
                            ___awdiv (ARG)
                            ___awmod (ARG)
                          _i2c_start
                           _i2c_stop
                          _i2c_write
 ---------------------------------------------------------------------------------
 (2) _init_digital_keypad                                  0     0      0       0
 ---------------------------------------------------------------------------------
 (2) _init_clcd                                            0     0      0     168
            _init_display_controller
 ---------------------------------------------------------------------------------
 (3) _init_display_controller                              2     2      0     168
                                              0 BANK0      2     2      0
                         _clcd_write
 ---------------------------------------------------------------------------------
 (2) _init_adc                                             0     0      0       0
 ---------------------------------------------------------------------------------
 (1) _download_log                                         4     4      0    1754
                                              6 BANK0      4     4      0
                         _clcd_print
                       _display_uart
                            _get_log
 ---------------------------------------------------------------------------------
 (3) _get_log                                              4     4      0     606
                                              0 BANK0      4     4      0
                             ___bmul
              _ext_eeprom_24C02_read
 ---------------------------------------------------------------------------------
 (4) ___bmul                                               3     2      1     186
                                              3 COMMON     3     2      1
 ---------------------------------------------------------------------------------
 (2) _display_uart                                         3     3      0     593
                                              3 BANK0      3     3      0
                            ___awmod
                            _putchar
 ---------------------------------------------------------------------------------
 (3) _putchar                                              1     1      0      47
                                              2 BANK0      1     1      0
                            ___awmod (ARG)
 ---------------------------------------------------------------------------------
 (1) _display_dashboard                                    4     2      2    2518
                                              6 BANK0      4     2      2
                            ___awdiv
                            ___awmod
                         _clcd_print
                         _clcd_putch
                       _display_time
 ---------------------------------------------------------------------------------
 (2) _display_time                                         0     0      0     587
                         _clcd_putch
                           _get_time
 ---------------------------------------------------------------------------------
 (3) _get_time                                             1     1      0     209
                                              0 BANK0      1     1      0
                        _read_ds1307
 ---------------------------------------------------------------------------------
 (4) _read_ds1307                                          2     2      0     209
                                              5 COMMON     2     2      0
                           _i2c_read
                      _i2c_rep_start
                          _i2c_start
                           _i2c_stop
                          _i2c_write
 ---------------------------------------------------------------------------------
 (1) _clear_log                                            4     4      0     503
                                              3 BANK0      4     4      0
                         _clcd_print
 ---------------------------------------------------------------------------------
 (1) _check_password                                       6     5      1    2916
                                              6 BANK0      6     5      1
                            ___awdiv
                            ___awmod
                         _clcd_print
                         _clcd_putch
                         _clcd_write
                       _clear_screen
              _ext_eeprom_24C02_read
                            _strncmp
 ---------------------------------------------------------------------------------
 (4) _ext_eeprom_24C02_read                                2     2      0     209
                                              5 COMMON     2     2      0
                           _i2c_read
                      _i2c_rep_start
                          _i2c_start
                           _i2c_stop
                          _i2c_write
 ---------------------------------------------------------------------------------
 (5) _i2c_rep_start                                        0     0      0       0
                  _i2c_wait_for_idle
 ---------------------------------------------------------------------------------
 (5) _i2c_read                                             2     2      0      81
                                              3 COMMON     2     2      0
                  _i2c_wait_for_idle
 ---------------------------------------------------------------------------------
 (3) ___awmod                                              6     2      4     499
                                              3 COMMON     4     0      4
                                              0 BANK0      2     2      0
 ---------------------------------------------------------------------------------
 (2) ___awdiv                                              8     4      4     499
                                              3 COMMON     4     0      4
                                              0 BANK0      4     4      0
 ---------------------------------------------------------------------------------
 (1) _change_password                                     10     9      1    1821
                                              6 BANK0      6     5      1
                         _clcd_print
                         _clcd_putch
                         _clcd_write
                       _clear_screen
        _ext_eeprom_24c02_byte_write
                            _strncmp
 ---------------------------------------------------------------------------------
 (2) _strncmp                                              6     2      4     275
                                              3 COMMON     4     0      4
                                              0 BANK0      2     2      0
 ---------------------------------------------------------------------------------
 (3) _ext_eeprom_24c02_byte_write                          2     1      1     131
                                              4 COMMON     2     1      1
                          _i2c_start
                           _i2c_stop
                          _i2c_write
 ---------------------------------------------------------------------------------
 (5) _i2c_write                                            1     1      0      47
                                              3 COMMON     1     1      0
                  _i2c_wait_for_idle
 ---------------------------------------------------------------------------------
 (5) _i2c_stop                                             0     0      0       0
                  _i2c_wait_for_idle
 ---------------------------------------------------------------------------------
 (5) _i2c_start                                            0     0      0       0
                  _i2c_wait_for_idle
 ---------------------------------------------------------------------------------
 (6) _i2c_wait_for_idle                                    0     0      0       0
 ---------------------------------------------------------------------------------
 (2) _clear_screen                                         2     2      0     168
                                              0 BANK0      2     2      0
                         _clcd_write
 ---------------------------------------------------------------------------------
 (3) _clcd_putch                                           2     1      1     378
                                              4 BANK0      2     1      1
                            ___awdiv (ARG)
                            ___awmod (ARG)
                         _clcd_write
 ---------------------------------------------------------------------------------
 (2) _clcd_print                                           3     0      3     456
                                              0 BANK0      3     0      3
                         _clcd_write
 ---------------------------------------------------------------------------------
 (4) _clcd_write                                           4     3      1     168
                                              3 COMMON     4     3      1
 ---------------------------------------------------------------------------------
 (1) ___lwdiv                                              7     3      4     247
                                              3 BANK0      7     3      4
                           _read_adc (ARG)
 ---------------------------------------------------------------------------------
 Estimated maximum stack depth 6
 ---------------------------------------------------------------------------------
 (Depth) Function   	        Calls       Base Space   Used Autos Params    Refs
 ---------------------------------------------------------------------------------
 (7) _isr                                                  3     3      0      46
                                              0 COMMON     3     3      0
 ---------------------------------------------------------------------------------
 Estimated maximum stack depth 7
 ---------------------------------------------------------------------------------

 Call Graph Graphs:

 _main (ROOT)
   ___awdiv
   ___awmod
   ___lwdiv
     _read_adc (ARG)
   _change_password
     _clcd_print
       _clcd_write
     _clcd_putch
       ___awdiv (ARG)
       ___awmod (ARG)
       _clcd_write (ARG)
     _clcd_write
     _clear_screen
       _clcd_write
     _ext_eeprom_24c02_byte_write
       _i2c_start
         _i2c_wait_for_idle
       _i2c_stop
         _i2c_wait_for_idle
       _i2c_write
         _i2c_wait_for_idle
     _strncmp
   _check_password
     ___awdiv
     ___awmod
     _clcd_print
     _clcd_putch
     _clcd_write
     _clear_screen
     _ext_eeprom_24C02_read
       _i2c_read
         _i2c_wait_for_idle
       _i2c_rep_start
         _i2c_wait_for_idle
       _i2c_start
       _i2c_stop
       _i2c_write
     _strncmp
   _clcd_print
   _clcd_write
   _clear_log
     _clcd_print
   _clear_screen
   _display_dashboard
     ___awdiv
     ___awmod
     _clcd_print
     _clcd_putch
     _display_time
       _clcd_putch
       _get_time
         _read_ds1307
           _i2c_read
           _i2c_rep_start
           _i2c_start
           _i2c_stop
           _i2c_write
   _download_log
     _clcd_print
     _display_uart
       ___awmod
       _putchar
         ___awmod (ARG)
     _get_log
       ___bmul
       _ext_eeprom_24C02_read
   _ext_eeprom_24c02_str_write
     _ext_eeprom_24c02_byte_write
   _init_config
     _init_adc
     _init_clcd
       _init_display_controller
         _clcd_write
     _init_digital_keypad
     _init_ds1307
       _read_ds1307
       _write_ds1307
         ___awdiv (ARG)
         ___awmod (ARG)
         _i2c_start (ARG)
         _i2c_stop (ARG)
         _i2c_write (ARG)
     _init_i2c
       ___lldiv
     _init_timer2
     _init_uart
       ___lldiv
     _puts
       _putchar
   _log_event
     ___awdiv
     ___awmod
     ___bmul
     _ext_eeprom_24c02_str_write
     _get_time
     _strncpy
   _menu_screen
     _clcd_print
     _clcd_putch
     _clear_screen
   _read_adc
   _read_digital_keypad
   _set_time
     ___awdiv
     ___awmod
     ___bmul
     _clcd_print
     _clcd_putch
     _clear_screen
     _get_time
     _strcpy
   _strcpy
   _view_log
     _clcd_print
     _clear_screen
     _display_log
       ___awmod
       _clcd_putch
       _get_log
   _write_ds1307

 _isr (ROOT)

Address spaces:
Name               Size   Autos  Total    Usage
BANK3               96      0       0      0.0%
BITBANK3            96      0       0      0.0%
BANK2               96      0       0      0.0%
BITBANK2            96      0       0      0.0%
BANK1               80     12      74     92.5%
BITBANK1            80      0       0      0.0%
BANK0               80     28      70     87.5%
BITBANK0            80      0       0      0.0%
COMMON              14      7      11     78.6%
BITCOMMON           14      0       0      0.0%
DATA                 0      0     153      0.0%
STACK                0      0       0      0.0%


Microchip Technology PIC Macro Assembler V3.10 build 20250813170317 
Symbol Table                                                                                   Fri Apr 17 15:11:35 2026

                                  pc 0002                       ___bmul@product 0074  
                     clcd_print@addr 0047                                   l20 17FF  
                                 l23 1273                                   l32 14FE  
                                 l17 1335                                   l26 12E1  
                                 l35 1292                                   l52 12CC  
                       ?_display_log 0070                                   l55 143A  
                                 l90 1274                                   l58 13BC  
                                 l93 1280                                   l87 1566  
                                 l96 1236                                   _GO 00FA  
                                 l99 1248                         ___awdiv@sign 0046  
                                 fsr 0004                  clear_log@reset_flag 004B  
__end_of_ext_eeprom_24c02_byte_write 1316          _ext_eeprom_24c02_byte_write 12F8  
                                l102 123F                                  l110 125D  
                                l105 1351                                  l106 1354  
                                l107 1356                                  l231 0329  
                                l223 02F6                                  l240 03A2  
                                l242 03B3                                  l340 179C  
                                l404 0A31                                  l501 07FF  
                                l229 0315                                  l415 1532  
                                l343 1739                                  l351 09A8  
                                l520 140F                                  l504 1367  
                                l257 0805                                  l346 16D7  
                                l418 0B60                                  l426 07F8  
                                l523 1315                                  l603 13E4  
                                l179 04FA                                  l507 1377  
                                l267 0AC3                                  l540 1252  
                                l349 099F                                  l453 0F07  
                                l367 0E54                                  l529 1467  
                                l394 1499                                  l458 0FFF  
                                l483 0CB7                                  l715 12A5  
                                l387 04B5                                  l725 0929  
                                l397 0787                                  l585 14CB  
                                l842 08C3                                  l595 1263  
                                l596 1267                                  l597 1268  
                                l855 085E                                  l969 15E2  
                                _GIE 005F                                  _RE1 0049  
                                _RE2 004A                                  _PR2 0092  
                                _PEN 048A                                  _SEN 0488  
                      ?_display_time 0070                        ?_display_uart 0070  
                        get_log@addr 0046                        log_event@addr 004D  
                                _log 00AB                                  _isr 1632  
                     clcd_putch@addr 0049                                  _pos 0035  
                                fsr0 0004                       clcd_putch@data 004A  
                                indf 0000                         ___awmod@sign 0046  
                 view_log@reset_flag 0052                       _check_password 0CB8  
                               l1151 1398                                 l1170 159E  
                               l1155 1631                ??_read_digital_keypad 0073  
                               l4002 0A33                                 l4020 0A50  
                               l4004 0A37                                 l4110 0988  
                               l4102 092A                                 l4030 0A64  
                               l4022 0A51                                 l4014 0A40  
                               l4006 0A39                                 l4200 0D92  
                               l4120 168F                                 l4112 0994  
                               l4104 093D                                 l4032 0A6A  
                               l4024 0A53                                 l4016 0A45  
                               l4008 0A3E                                 l4210 0DEA  
                               l4202 0D9F                                 l4130 0CC8  
                               l4122 1694                                 l4114 099D  
                               l4106 094A                                 l4050 0A8A  
                               l4034 0A70                                 l4026 0A59  
                               l4042 0A78                                 l4018 0A4B  
                               l4220 0E2F                                 l4204 0DA4  
                               l4212 0DEF                                 l4140 0CDF  
                               l4132 0CCB                                 l4124 0CBB  
                               l4116 09A7                                 l4108 0987  
                               l4060 0A9E                                 l4052 0A8C  
                               l4044 0A7E                                 l4036 0A76  
                               l4028 0A5E                                 l4230 0E52  
                               l4222 0E34                                 l4214 0DFB  
                               l4206 0DD8                                 l4150 0CFF  
                               l4142 0CE8                                 l4134 0CD1  
                               l4126 0CC1                                 l4118 1682  
                               l4070 0AA5                                 l4062 0A9F  
                               l4054 0A92                                 l4046 0A84  
                               l4310 09FF                                 l4302 09E9  
                               l4400 0BA5                                 l4224 0E41  
                               l4216 0E08                                 l4208 0DDF  
                               l4152 0D01                                 l4136 0CD7  
                               l4144 0CED                                 l4128 0CC3  
                               l4240 041A                                 l4232 040A  
                               l4080 0AB4                                 l4056 0A97  
                               l4048 0A89                                 l4064 0AA1  
                               l4320 0A24                                 l4312 0A11  
                               l4304 09F4                                 l3610 1274  
                               l4410 0BBF                                 l4402 0BAB  
                               l4226 0E48                                 l4218 0E20  
                               l4170 0D19                                 l4162 0D12  
                               l4146 0CF3                                 l4138 0CDD  
                               l4242 0420                                 l4250 0432  
                               l4234 0410                                 l4082 0AB7  
                               l4058 0A99                                 l4074 0AA9  
                               l4322 0A27                                 l4314 0A14  
                               l4306 09F7                                 l3612 127A  
                               l3620 1259                                 l4420 0BDF  
                               l4412 0BC8                                 l4404 0BAD  
                               l4228 0E4F                                 l4180 0D4D  
                               l4172 0D24                                 l4164 0D18  
                               l4148 0CF9                                 l4156 0D0B  
                               l4340 1516                                 l4332 1502  
                               l3700 17F1                                 l4252 0438  
                               l4260 0440                                 l4244 0426  
                               l4236 0415                                 l4076 0AAE  
                               l4068 0AA3                                 l4500 0EA4  
                               l4308 09FD                                 l4316 0A19  
                               l3702 12D0                                 l3614 122E  
                               l3622 125D                                 l4422 0BE1  
                               l4406 0BB7                                 l4414 0BCD  
                               l3630 1337                                 l4182 0D5A  
                               l4174 0D28                                 l4158 0D10  
                               l4342 1523                                 l4334 1508  
                               l3710 1763                                 l4350 07A9  
                               l4270 0455                                 l4262 0445  
                               l4254 043D                                 l4246 0428  
                               l4238 0419                                 l4086 0AB9  
                               l4078 0AB3                                 l4510 0EC4  
                               l4502 0EB5                                 l4318 0A1F  
                               l4326 0A2A                                 l3616 1233  
                               l4440 0C17                                 l4424 0BEB  
                               l4416 0BD3                                 l4432 0BFD  
                               l4408 0BBD                                 l3800 085A  
                               l3640 1355                                 l3632 133C  
                               l4184 0D69                                 l4176 0D2E  
                               l4336 150A                                 l3720 179B  
                               l3712 176B                                 l4352 07B1  
                               l4360 07E9                                 l4344 0788  
                               l3704 139C                                 l4280 04B2  
                               l4272 046A                                 l4248 042D  
                               l4096 0ABB                                 l4520 0EDD  
                               l4512 0ECC                                 l4504 0EB7  
                               l4328 0A30                                 l4600 009A  
                               l3650 1321                                 l3618 1254  
                               l4450 0C44                                 l4442 0C1E  
                               l4434 0C03                                 l4426 0BF1  
                               l4418 0BD9                                 l4370 0B83  
                               l4362 0B64                                 l3634 1344  
                               l3626 1240                                 l4186 0D6C  
                               l4178 0D41                                 l4194 0D70  
                               l4338 150B                                 l3714 177B  
                               l3706 173A                                 l3730 1479  
                               l3722 146B                                 l4354 07B9  
                               l4346 078B                                 l3810 126E  
                               l4274 0480                                 l4266 0447  
                               l4530 0EF5                                 l4522 0EE5  
                               l4514 0ECE                                 l4506 0EB8  
                               l4290 09BB                                 l4610 00D6  
                               l4602 00A3                                 l3652 1323  
                               l3812 14CC                                 l3820 1281  
                               l3644 1237                                 l3740 12F9  
                               l3900 160D                                 l4460 0C57  
                               l4436 0C05                                 l4444 0C26  
                               l4428 0BF3                                 l4380 0B91  
                               l4372 0B8A                                 l4364 0B6A  
                               l3636 1348                                 l3628 1245  
                               l4196 0D79                                 l4188 0D6E  
                               l3716 1783                                 l3708 1755  
                               l3732 1485                                 l3724 1477  
                               l4348 0790                                 l4356 07BD  
                               l3804 1269                                 l4276 0488  
                               l4268 044D                                 l4532 0EF7  
                               l4540 0F09                                 l4516 0ED3  
                               l4524 0EE6                                 l4508 0EBE  
                               l4292 09C0                                 l4284 09AC  
                               l4700 01E4                                 l4612 00DC  
                               l4620 0109                                 l4604 00A7  
                               l3654 1329                                 l3814 14D6  
                               l3822 1288                                 l3646 123C  
                               l3902 1613                                 l4462 0C5D  
                               l4446 0C2C                                 l4438 0C0A  
                               l4390 0B96                                 l4382 0B92  
                               l4374 0B8D                                 l4366 0B6F  
                               l3638 134D                                 l3662 13E6  
                               l4198 0D85                                 l3718 1793  
                               l3670 1295                                 l3734 148D  
                               l4358 07CF                                 l3806 126C  
                               l3750 08E8                                 l3742 08C4  
                               l3830 1533                                 l4278 049D  
                               l4550 0FEB                                 l4542 0F1C  
                               l4534 0EFD                                 l4518 0EDB  
                               l4526 0EE9                                 l3910 06E0  
                               l4294 09D8                                 l4286 09B2  
                               l4710 020A                                 l4702 01EA  
                               l4622 010F                                 l4630 012C  
                               l4614 00E2                                 l4606 00B5  
                               l4560 15B3                                 l4552 159F  
                               l3648 1317                                 l3816 14E6  
                               l3904 1621                                 l4480 0CB1  
                               l4464 0C75                                 l4456 0C47  
                               l4448 0C3F                                 l4472 0C86  
                               l4392 0B97                                 l4384 0B93  
                               l4376 0B8E                                 l4368 0B7C  
                               l3664 140E                                 l3656 1411  
                               l3672 1299                                 l3736 1496  
                               l3808 126D                                 l3824 12B9  
                               l3760 091B                                 l3752 08F1  
                               l3744 08D6                                 l3832 1536  
                               l3840 1249                                 l4544 0F20  
                               l4536 0EFF                                 l4528 0EEF  
                               l3920 0729                                 l3912 06FB  
                               l4296 09E7                                 l4288 09B7  
                               l4720 026B                                 l4712 0217  
                               l4704 01F0                                 l4640 0146  
                               l4632 0132                                 l4624 0114  
                               l4616 00E4                                 l4608 00BB  
                               l4570 15D1                                 l4562 15B5  
                               l4554 15A3                                 l3818 14EE  
                               l4482 0CB6                                 l4474 0C8A  
                               l4466 0C84                                 l4458 0C53  
                               l4394 0B98                                 l4386 0B94  
                               l4378 0B90                                 l3770 080D  
                               l3658 1439                                 l3738 1261  
                               l3674 129B                                 l3690 17C8  
                               l3682 179D                                 l3826 12C2  
                               l3754 0903                                 l3746 08D9  
                               l3762 0921                                 l3834 1563  
                               l3842 149A                                 l3850 13CC  
                               l4546 0F2E                                 l4538 0F04  
                               l4490 0E63                                 l3930 0763  
                               l3922 0735                                 l3914 0707  
                               l4730 02F8                                 l4722 02A7  
                               l4714 0226                                 l4706 01F6  
                               l4650 016C                                 l4642 0153  
                               l4634 0138                                 l4626 0116  
                               l4618 00F9                                 l4572 15D8  
                               l4564 15B9                                 l4556 15A9  
                               l4476 0C95                                 l4388 0B95  
                               l4396 0B99                                 l3940 0862  
                               l3780 0823                                 l3772 0812  
                               l3676 129D                                 l3668 1294  
                               l3692 17CF                                 l3684 17A8  
                               l3836 0800                                 l3828 12C4  
                               l3756 0911                                 l3748 08E4  
                               l3844 149E                                 l3852 13D4  
                               l3860 144F                                 l4548 0F36  
                               l4492 0E67                                 l3932 076F  
                               l3924 073F                                 l3916 0713  
                               l3908 06DA                                 l4740 0339  
                               l4732 0305                                 l4716 022B  
                               l4708 01FD                                 l4724 02E4  
                               l4660 0182                                 l4652 0172  
                               l4644 015A                                 l4636 013D  
                               l4580 0051                                 l4566 15CA  
                               l4558 15AC                                 l4574 15DE  
                               l4478 0CA2                                 l4398 0B9F  
                               l3950 0876                                 l3942 0866  
                               l3790 083D                                 l3782 0826  
                               l3774 0814                                 l3766 0806  
                               l3678 12A4                                 l3838 07F9  
                               l3694 17D2                                 l3686 17AF  
                               l3758 0912                                 l3846 13BD  
                               l3862 1457                                 l3854 143C  
                               l3870 1567                                 l4494 0E72  
                               l4486 0E58                                 l3934 077B  
                               l3926 074B                                 l3918 071D  
                               l4750 0365                                 l4734 0319  
                               l4726 02EA                                 l4718 022F  
                               l4670 0196                                 l4662 0185  
                               l4646 0161                                 l4638 0141  
                               l4590 0069                                 l4582 0055  
                               l4568 15D0                                 l3960 088A  
                               l3952 0878                                 l3944 086B  
                               l3792 0843                                 l3784 082D  
                               l3776 0818                                 l3768 0809  
                               l3936 0AC7                                 l3696 17D9  
                               l3688 17C1                                 l3848 13BE  
                               l3856 143D                                 l3880 158A  
                               l3872 156C                                 l3864 1378  
                               l4496 0E82                                 l4488 0E5E  
                               l3928 0757                                 l4760 0389  
                               l4752 0367                                 l4744 033D  
                               l4736 0325                                 l4728 02F0  
                               l4680 01A9                                 l4672 019A  
                               l4664 018A                                 l4656 0179  
                               l4648 0164                                 l4592 0069  
                               l4584 0056                                 l3970 08A8  
                               l3962 088C                                 l3954 087A  
                               l3946 086D                                 l3938 085F  
                               l3794 084A                                 l3786 082F  
                               l3778 081D                                 l3698 17E7  
                               l3858 144D                                 l3882 158E  
                               l3874 1572                                 l3866 137A  
                               l4498 0E93                                 l4762 038B  
                               l4746 0350                                 l4738 032D  
                               l4682 01AE                                 l4674 019D  
                               l4666 018E                                 l4658 017E  
                               l4690 01C6                                 l4594 0075  
                               l4586 0056                                 l4578 004C  
                               l3892 15F4                                 l3972 08AF  
                               l3964 0890                                 l3956 0880  
                               l3948 0871                                 l3788 0833  
                               l3796 0850                                 l3868 16D8  
                               l3884 1590                                 l4780 03A6  
                               l4772 039C                                 l4764 0391  
                               l4756 0374                                 l4748 035F  
                               l4692 01CC                                 l4684 01B2  
                               l4676 01A2                                 l4668 0191  
                               l4596 0092                                 l4588 0068  
                               l3894 15F8                                 l3886 15E3  
                               l3966 08A1                                 l3958 0883  
                               l3974 08B5                                 l3798 0855  
                               l3990 04F8                                 l3982 04B6  
                               l3878 1583                                 l4790 03C4  
                               l4766 0397                                 l4758 0383  
                               l4694 01D2                                 l4678 01A6  
                               l4598 0098                                 l3888 15F1  
                               l3896 15FE                                 l3976 08BA  
                               l3968 08A7                                 l3992 04F9  
                               l3984 04D4                                 l4792 03D7  
                               l4784 03B7                                 l4768 039B  
                               l4696 01D8                                 l4688 01B5  
                               _ADFM 04FF                                 l3898 1606  
                               l3978 08BF                                 l3986 04D9  
                               l3994 135A                                 l4698 01DC  
                               l3988 04ED                                 l3996 1366  
                               l4796 03E4                                 ?_isr 0070  
                               l3998 136B                                 l4798 0400  
                               _ADON 00F8                                 STR_1 06D1  
                               STR_2 06D4                                 STR_3 06C2  
                               STR_4 06C5                                 STR_5 06C8  
                               STR_6 06CB                                 STR_7 061E  
                               STR_8 06BD                                 STR_9 06CE  
                               _CREN 00C4                                 u4000 0A9E  
                               u4001 0A9D                                 u4010 0AAE  
                               u4011 0AAD                                 u4100 0D10  
                               u4020 0AB3                                 u4101 0D0F  
                               u4021 0AB2                                 u3310 127A  
                               u4110 0D18                                 u4030 099D  
                               u3311 1279                                 u4111 0D17  
                               u4031 099C                                 u3320 1280  
                               u4120 0D2E                                 u4040 09A7  
                               u4200 043D                                 u3321 127F  
                               u4121 0D2D                                 u4041 09A6  
                               u4201 043C                                 u3330 134D  
                               u4130 0D41                                 u4050 0CC1  
                               u3410 1496                                 u4210 0445  
                               u3331 134C                                 u4131 0D40  
                               u4051 0CC0                                 u3411 1495  
                               u4211 0444                                 u3340 131E  
                               u3500 080D                                 u4140 0D79  
                               u4060 0CD1                                 u3420 1267  
                               u4300 0790                                 u4220 044D  
                               u3341 131A                                 u3501 080C  
                               u4141 0D78                                 u4061 0CD0  
                               u3405 1788                                 u3421 1266  
                               u4301 078F                                 u4221 044C  
                               u3510 0818                                 u4150 0DDF  
                               u4070 0CD7                                 u4310 07CF  
                               u3430 08D6                                 u4230 09B2  
                               u3511 0817                                 u4151 0DDE  
                               u5007 0D62                                 u4071 0CD6  
                               u4311 07CE                                 u3431 08D5  
                               u4231 09B1                                 u4400 0C5D  
                               u4320 0B6A                                 u3520 0823  
                               u4080 0CF3                                 u3360 1299  
                               u3600 1544                                 u4160 0410  
                               u4240 09C0                                 u4401 0C5C  
                               u4321 0B69                                 u3521 0822  
                               u5017 0E28                                 u4081 0CF2  
                               u3361 1298                                 u4161 040F  
                               u4241 09BF                                 u3354 1321  
                               u4330 0B9F                                 u4090 0CF9  
                               u3370 12A4                                 u3450 08E8  
                               u3610 14AC                                 u4170 0420  
                               u4410 0E5E                                 u4250 09FD  
                               u5027 0C7D                                 u4331 0B9E  
                               u4091 0CF8                                 u3371 12A3  
                               u4315 07CB                                 u3451 08E7  
                               u4171 041F                                 u4411 0E5D  
                               u4251 09FC                                 u3700 160D  
                               u4340 0BA5                                 u3540 0833  
                               u3620 13E4                                 u4180 0426  
                               u4500 0EFD                                 u4420 0EBE  
                               u4260 0A11                                 u3701 160C  
                               u5037 0CAA                                 u4341 0BA4  
                               u3541 0832                                 u3445 08DB  
                               u3605 153F                                 u3621 13E3  
                               u4181 0425                                 u4501 0EFC  
                               u4421 0EBD                                 u4261 0A10  
                               u3710 1613                                 u4350 0BD3  
                               u3550 083D                                 u3470 0903  
                               u3630 1467                                 u4190 0438  
                               u4510 0F04                                 u4430 0EC4  
                               u4270 0A1F                                 u5047 128E  
                               u3711 1612                                 u4351 0BD2  
                               u3551 083C                                 u3535 0827  
                               u3471 0902                                 u3615 14A7  
                               u3631 1466                                 u4191 0437  
                               u4511 0F03                                 u4431 0EC3  
                               u4271 0A1E                                 u4600 15CA  
                               u3720 1621                                 u4360 0BD9  
                               u3640 1398                                 u4520 0F1C  
                               u4440 0ECC                                 u4280 0A24  
                               u4601 15C9                                 u5057 1326  
                               u3721 1620                                 u4361 0BD8  
                               u3385 1758                                 u3465 08EA  
                               u3641 1397                                 u4521 0F1B  
                               u4441 0ECB                                 u4281 0A23  
                               u4265 0A0D                                 u4370 0C03  
                               u3810 08B5                                 u3730 0866  
                               u3570 0850                                 u4290 1508  
                               u3490 0921                                 u3650 1582  
                               u4530 0F27                                 u4450 0ED3  
                               u5067 1330                                 u4371 0C02  
                               u3811 08B4                                 u3731 0865  
                               u3571 084F                                 u3555 0839  
                               u4291 1507                                 u3395 1770  
                               u3491 0920                                 u3475 08FF  
                               u3651 1581                                 u4531 0F25  
                               u4451 0ED2                                 _PEIE 005E  
                               u4620 15DE                                 u4380 0C2C  
                               u3820 08BA                                 u3740 0871  
                               u3580 0855                                 u3660 1589  
                               u3900 0A5E                                 u4540 0F28  
                               u4460 0EDB                                 u4700 0132  
                               u4621 15DD                                 u4605 15C6  
                               u4381 0C2B                                 u3821 08B9  
                               u3805 08A9                                 u3741 0870  
                               u3581 0854                                 u3565 0844  
                               u3485 0913                                 u3661 1588  
                               u3901 0A5D                                 u4525 0F18  
                               u4461 0EDA                                 u4701 0131  
                               u3590 14FE                                 u4390 0C3F  
                               u3750 0880                                 u3670 159E  
                               u3910 0A64                                 u4550 0F36  
                               u4470 0EE5                                 u4710 0138  
                               u4630 0098                                 u4615 15D2  
                               u3591 14FD                                 u4391 0C3E  
                               u3751 087F                                 u3671 159D  
                               u3911 0A63                                 u4551 0F35  
                               u4471 0EE4                                 u4711 0137  
                               u4631 0097                                 u4560 15A9  
                               u3680 15F1                                 u3840 136B  
                               u3920 0A6A                                 u4480 0EEF  
                               u4800 01F0                                 u4720 013D  
                               u4640 00B5                                 u4561 15A8  
                               u3681 15F0                                 u3841 136A  
                               u3921 0A69                                 u4481 0EEE  
                               u4801 01EF                                 u4721 013C  
                               u4641 00B4                                 u3690 1606  
                               u3770 0890                                 u3930 0A70  
                               u3850 0A3E                                 u4490 0EF5  
                               u4810 01F6                                 u4730 016C  
                               u4650 00BB                                 u3691 1605  
                               u3771 088F                                 u3835 135D  
                               u3931 0A6F                                 u3851 0A3D  
                               u4491 0EF4                                 u4811 01F5  
                               u4731 016B                                 u4651 00BA  
                               u4580 15B9                                 u3940 0A76  
                               u3860 0A45                                 u4740 0172  
                               u4660 00DC                                 _RCEN 048B  
                               _RCIF 0065                                 u4581 15B8  
                               u3765 0884                                 u3941 0A75  
                               u3861 0A44                                 u4741 0171  
                               u4661 00DB                                 u3790 08A1  
                               u3950 0A7E                                 u3870 0A4B  
                               u4750 0178                                 u4670 00E2  
                               u4575 15AD                                 u3791 08A0  
                               u3951 0A7D                                 u3871 0A4A  
                               u4751 0177                                 u4671 00E1  
                               u3960 0A84                                 u3880 0A50  
                               u4760 01CC                                 u4680 010F  
                               u3785 0891                                 u3961 0A83  
                               u3881 0A4F                                 u4825 025C  
                               u4761 01CB                                 u4681 010E  
                               u3970 0A89                                 u3890 0A59  
                               u4850 02EA                                 u4770 01D2  
                               u4690 0114                                 u4595 15BA  
                               u3795 089D                                 u3971 0A88  
                               u3891 0A58                                 u4851 02E9  
                               u4835 0298                                 u4907 021F  
                               u4771 01D1                                 u4691 0113  
                               u3980 0A92                                 u4860 02F0  
                               u4780 01D8                                 u3981 0A91  
                               u4917 09E0                                 u4861 02EF  
                               u4845 02D4                                 u4781 01D7  
                               u3990 0A97                                 u4870 02F6  
                               u4790 01EA                                 u4927 17A3  
                               u3991 0A96                                 u4871 02F5  
                               u4791 01E9                                 u4880 0365  
                               u4937 17B5                                 u4881 0364  
                               u4890 0389                                 u4947 17C5  
                               u4891 0388                                 u4957 17DD  
                               u4967 17ED                                 u4977 17FC  
                               u4987 07F1                                 u4997 152B  
                               _SPEN 00C7                                 _RSEN 0489  
                               _TXIF 0064                                 _R_nW 04A2  
                               _gear 00C8                                 _main 004C  
                               _menu 00D4                       log_event@event 0049  
                               _time 00BD                                 btemp 007E  
                               _puts 13BD                       log_event@speed 004A  
                               start 000C                       menu_screen@key 004B  
                  ___bmul@multiplier 0075                       clcd_write@byte 0076  
                     clcd_write@mode 0073                        _i2c_rep_start 1240  
                              ??_isr 0070                         ?_init_ds1307 0070  
                              ?_main 0070                         ?_read_ds1307 0070  
                              _ACKEN 048C                                _ACKDT 048D  
                     ??_display_time 0077                       ??_display_uart 0048  
                    __end_of___awdiv 08C4                                STR_10 064C  
                              STR_11 05CC                                STR_20 05FE  
                              STR_12 05DD                                STR_21 0692  
                              STR_13 06AF                                STR_22 06B8  
                              STR_30 0533                                STR_14 069C  
                              STR_31 065B                                STR_23 062E  
                              STR_15 0685                                STR_32 0669  
                              STR_24 063D                                STR_40 0599  
                              STR_16 06A6                                STR_25 064C  
                              STR_33 0544                                STR_41 0511  
                              STR_17 060E                                STR_34 0533  
                              STR_18 05AA                                STR_26 0500  
                              STR_19 0677                                STR_35 05EE  
                              STR_27 0555                                STR_28 05BB  
                              STR_36 0588                      __end_of___awmod 085F  
                              STR_37 0577                                STR_29 0522  
                              STR_38 0566                                STR_39 0533  
                              ?_puts 0048                      __end_of___lldiv 092A  
                        i2c_read@ack 0073                      ___awdiv@divisor 0073  
                    __end_of___lwdiv 15E3                         ?_init_config 0070  
                              i1l563 1650                                i1l565 1677  
                              i1l568 167B                      ___awdiv@counter 0045  
                              _RCREG 001A                                _SPBRG 0099  
                              _PORTB 0006                                _PORTD 0008  
                              _SSPM3 00A3                                _TRISB 0086  
                              _TRISD 0088                                _SSPEN 00A5  
                              _TXREG 0019                         ?_init_timer2 0070  
                       main@menu_pos 00E1                                _nDONE 00FA  
               __end_of_clear_screen 1293               __end_of_check_password 0E55  
                    __end_of_get_log 149A                                _newHr 0036  
                              btemp0 007E                                btemp1 007F  
                    _change_password 0B61                         ?_menu_screen 004B  
                              pclath 000A                                puts@s 0048  
                    __end_of_putchar 1269                                status 0003  
                              wtemp0 007E                      __end_of_strncmp 1632  
                    __end_of_strncpy 159F                     init_ds1307@dummy 004B  
                    __initialization 000F                       ?_i2c_rep_start 0070  
                       __end_of_main 0407                         __end_of_puts 13E5  
                set_time@blink_delay 0027                     __end_of_i2c_read 1357  
                   __end_of_i2c_stop 1240                        ?_download_log 0070  
                             ??_main 005A                               ??_puts 0077  
      ext_eeprom_24c02_str_write@str 0045                      ?_check_password 004B  
                             _ADCON0 001F                               _ADRESH 001E  
                             _ADRESL 009E                     ___awdiv@dividend 0075  
                       i2c_read@data 0074                               i1l3600 1661  
                             i1l3602 1672                               i1l3604 1674  
                             i1l3608 167A                               i1l3590 164E  
                             i1l3582 1632                               i1l3592 1655  
                             i1l3584 1638                               i1l3586 1647  
                             i1l3594 1657                               i1l3596 1659  
                             i1l3588 1649                               i1l3598 165B  
                             u330_20 1672                               u330_21 1671  
                             u325_20 1638                               u325_21 1637  
                             u326_20 1647                               u326_21 1646  
                             u327_20 164E                               u327_21 164D  
                             u328_20 1655                               u328_21 1654  
                             u329_20 1661                               u329_21 1660  
                       _write_ds1307 1399                               _TMR2IE 0461  
                             _TMR2IF 0061                               _TMR2ON 0092  
                             _SSPADD 0093                               _TRISE1 0449  
                             _TRISE2 044A                               _SSPBUF 0013  
        __end_of_init_digital_keypad 0806            change_password@password_1 003D  
          change_password@password_2 0039                     __end_of_get_time 179D  
                             ___bmul 1293              _init_display_controller 179D  
                    set_time@newTime 00B6                            ??___awdiv 0077  
                          ??___awmod 0077                            ??___lldiv 0073  
          change_password@reset_flag 004F                            ??___lwdiv 0076  
                     get_log@log_pos 0045                     __end_of_init_i2c 1567  
                   __end_of_init_adc 0800                               _newMin 0037  
                             _newSec 0038                     __end_of_read_adc 1378  
                     ??_download_log 004B                     ___awdiv@quotient 0047  
                    ___awmod@divisor 0073                      ___awmod@counter 0045  
                             main@gr 00E5                            ??_get_log 0077  
                             _strcpy 1378                         __pdataCOMMON 0079  
            __end_of_change_password 0CB8          read_digital_keypad@prev_key 0065  
                   __end_of_set_time 1000                               ltemp0a 0080  
                display_uart@log_pos 004A                               saved_w 007E  
                   __end_of_view_log 0A32                               ttemp0a 007F  
                          ??_putchar 0077                               wtemp0a 007F  
                          ??_strncmp 0045                            ??_strncpy 0045  
                    check_password@i 0031                      check_password@j 0050  
            __end_of__initialization 0048                 __end_of_display_time 173A  
               __end_of_display_uart 0B61                      ??_i2c_rep_start 0073  
                ___bmul@multiplicand 0073                       __pcstackCOMMON 0070  
                       __pidataBANK0 04FB                         __pidataBANK1 12E2  
                  __end_of_i2c_start 1237                    __end_of_i2c_write 125E  
                  _i2c_wait_for_idle 1274             check_password@saved_pass 00C4  
                 ?_i2c_wait_for_idle 0070                           __pbssBANK0 0020  
                         __pbssBANK1 00A0             check_password@reset_flag 004B  
                          ?_i2c_read 0070                            ?_i2c_stop 0070  
          ??_init_display_controller 0045                           _clcd_print 14CC  
                ??_i2c_wait_for_idle 0073                           _clcd_putch 12CD  
                         _clcd_write 1316                _ext_eeprom_24C02_read 13E5  
                         __pmaintext 004C                      read_ds1307@addr 0075  
                    read_ds1307@data 0076                         _clear_screen 1281  
                            ?___bmul 0073                           __pintentry 0004  
                            _ACKSTAT 048E                              ?_strcpy 0073  
               read_digital_keypad@k 0073          __end_of_read_digital_keypad 0AC4  
                   ?_change_password 004B            __end_of_i2c_wait_for_idle 1281  
                       init_i2c@baud 0052                              _SSPCON2 0091  
                          ?_get_time 0070         ??_ext_eeprom_24c02_str_write 0076  
                         __stringtab 1000                           ??_i2c_read 0073  
                         ??_i2c_stop 0073                            ?_init_i2c 0052  
               __end_of_download_log 07F9                            ?_init_adc 0070  
                          ?_read_adc 0073                    __end_of_clear_log 1533  
                          ?_set_time 004B                   change_password@key 004B  
          ext_eeprom_24C02_read@addr 0075            ext_eeprom_24C02_read@data 0076  
                            ___awdiv 085F                              ___awmod 0806  
                          ?_view_log 004E                              ___lldiv 08C4  
                            ___lwdiv 159F                              __ptext1 09A9  
                            __ptext2 06D7                              __ptext3 0E55  
                            __ptext4 1378                              __ptext5 0A32  
                            __ptext6 1357                              __ptext7 0407  
                            __ptext8 092A                              __ptext9 1567  
                   ??_check_password 004C                              _get_log 1468  
    __end_of_init_display_controller 1800                    __end_of_init_clcd 1274  
                  __end_of_init_uart 14CC                     ___awmod@dividend 0075  
                     main@reset_flag 00E7                    __end_of_log_event 09A9  
             display_dashboard@event 004B               display_dashboard@speed 004C  
                            _putchar 125E                              main@key 00E9  
                            clrloop0 1227                           ??_get_time 0045  
                            _strncmp 15E3                              _strncpy 1567  
                         _long_press 0078                 end_of_initialization 0048  
                        set_time@key 004B                           ??_init_i2c 0056  
                         ??_init_adc 0073                           ??_read_adc 0075  
             ?_ext_eeprom_24C02_read 0070                          ?_clcd_print 0045  
                        ?_clcd_putch 0049                      ___lldiv@divisor 0045  
                        ?_clcd_write 0073                      ___lldiv@counter 0051  
                         ??_set_time 004C                   display_log@log_pos 004D  
                         ??_view_log 004F                         __pstringtext 0500  
                            strcpy@d 0076                      read_adc@channel 0045  
                       _display_time 16D8                         _display_uart 0AC4  
                      i2c_write@data 0073                      read_adc@reg_val 0046  
                      clcd_print@str 0045      ext_eeprom_24c02_byte_write@addr 0075  
    ext_eeprom_24c02_byte_write@data 0074                        ??_display_log 004B  
                     __end_of___bmul 12A6                        __pidataCOMMON 1224  
                        view_log@key 004E         ?_ext_eeprom_24c02_byte_write 0074  
                     __end_of_strcpy 1399                  start_initialization 000F  
                          _i2c_start 122E                          __end_of_isr 1682  
                          _i2c_write 1253   __end_of_ext_eeprom_24c02_str_write 1468  
         _ext_eeprom_24c02_str_write 143B                           isr@current 0072  
                        putchar@data 0047                     change_password@i 002C  
                   change_password@j 002B                __end_of_i2c_rep_start 1249  
               change_password@i_409 0050                             ??___bmul 0074  
         read_digital_keypad@current 0075                           init_fetch0 12A6  
                      ??_init_ds1307 0077                          __pdataBANK0 0061  
                        __pdataBANK1 00C8                        ??_read_ds1307 0075  
                       _download_log 0788                             ??_strcpy 0045  
                      ??_init_config 0077   read_digital_keypad@long_press_flag 0077  
                __end_of_display_log 0788                        ??_init_timer2 0073  
                        __pbssCOMMON 0077        ??_ext_eeprom_24c02_byte_write 0075  
                          ___latbits 0002                        __pcstackBANK0 0045  
                      __pcstackBANK1 00DE                           ?_i2c_start 0070  
                         ?_i2c_write 0070                        ??_menu_screen 004C  
                   ___lwdiv@dividend 004A                            _clear_log 14FF  
                           ?___awdiv 0073                             ?___awmod 0073  
                  _display_dashboard 1682                             ?___lldiv 0045  
                           ?___lwdiv 0048                            _clock_reg 0020  
                 ?_display_dashboard 004B                            __pstrings 1000  
                           ?_get_log 0070              check_password@user_pass 0041  
                 set_time@reset_flag 004E                  __end_of_init_ds1307 12CD  
                ??_display_dashboard 004D                  __end_of_read_ds1307 143B  
                   ___lwdiv@quotient 004D                             ?_putchar 0070  
                          _init_clcd 1269                  __end_of_init_config 04FB  
                          _init_uart 149A                             ?_strncmp 0073  
                           ?_strncpy 0073                            _log_count 0064  
                          _log_event 092A                        ?_write_ds1307 0049  
            ??_ext_eeprom_24C02_read 0075                  __end_of_init_timer2 1253  
           ?_init_display_controller 0070                    interrupt_function 0004  
                          clear_ram0 1226                         ??_clcd_print 0077  
                       ??_clcd_putch 0077                            _saved_log 00A0  
                __end_of_menu_screen 04B6                         ??_clcd_write 0074  
                         ?_clear_log 0070            __end_of_display_dashboard 16D8  
                          main@F1255 0061                        isr@hold_count 0023  
                          _wait_time 0033                          _display_log 06D7  
                      download_log@i 004E                          __stringbase 1012  
                          main@event 00E2                            main@speed 00E6  
                        ??_i2c_start 0073                   __end_of_clcd_print 14FF  
                        ??_i2c_write 0073                   __end_of_clcd_putch 12E2  
                 __end_of_clcd_write 1336                           ?_init_clcd 0070  
                         ?_init_uart 0052                       ??_write_ds1307 0077  
                         ?_log_event 0049                  _init_digital_keypad 0800  
                           _i2c_read 1336                             _i2c_stop 1237  
                      set_time@blink 0029               check_password@attempts 0032  
               ?_init_digital_keypad 0070                          _init_ds1307 12B9  
                 __end_of__stringtab 1012                          _read_ds1307 1410  
                        _init_config 04B6                          _init_timer2 1249  
                    ___lwdiv@divisor 0048                      ___lwdiv@counter 004C  
                           __ptext10 143B                             __ptext11 04B6  
                           __ptext20 1269                             __ptext12 13BD  
                           __ptext21 179D                             __ptext13 149A  
                           __ptext30 173A                             __ptext22 07F9  
                           __ptext14 1249                             __ptext31 1410  
                           __ptext23 0788                             __ptext15 1533  
                           __ptext40 15E3                             __ptext32 14FF  
                           __ptext24 1468                             __ptext16 08C4  
                           __ptext41 12F8                             __ptext33 0CB8  
                           __ptext25 1293                             __ptext17 12B9  
                           __ptext50 159F                             __ptext42 1253  
                           __ptext34 13E5                             __ptext26 0AC4  
                           __ptext18 1399                             __ptext51 1632  
                           __ptext43 1237                             __ptext35 1240  
                           __ptext27 125E                             __ptext19 0800  
                           __ptext44 122E                             __ptext36 1336  
                           __ptext28 1682                             __ptext45 1274  
                           __ptext37 0806                             __ptext29 16D8  
                           __ptext46 1281                             __ptext38 085F  
                           __ptext47 12CD                             __ptext39 0B61  
                           __ptext48 14CC                             __ptext49 1316  
                           _held_key 007A          ?_ext_eeprom_24c02_str_write 0045  
                           _get_time 173A                          _menu_screen 0407  
                         strcpy@dest 0073                      main@screen_flag 00E8  
                           _init_i2c 1533                             _init_adc 07F9  
                           _read_adc 1357              read_digital_keypad@mode 0074  
            read_digital_keypad@once 0079                            set_time@i 002E  
                          set_time@j 002D                          ??_clear_log 0048  
                  ??_change_password 004C                        ?_clear_screen 0070  
                           _set_time 0E55                             _view_log 09A9  
                    view_log@log_pos 002F                ??_init_digital_keypad 0073  
                           get_log@i 0047                             main@wait 00DE  
                           isr@count 0025                             init_ram0 12AA  
                        ??_init_clcd 0077                          ??_init_uart 0056  
                        ??_log_event 004B                             intlevel1 0000  
     ext_eeprom_24c02_str_write@addr 0076                        init_uart@baud 0052  
                   ___lldiv@dividend 0049                            strcpy@src 0074  
                          stringcode 100A                       ??_clear_screen 0045  
                          strncpy@cp 0046                      main@view_return 00E0  
               __end_of_write_ds1307 13BD                  _read_digital_keypad 0A32  
                   ___lldiv@quotient 004D                             strncmp@l 0073  
                           strncmp@n 0075                             strncmp@r 0074  
                           stringtab 1000                             strncpy@d 0073  
                           strncpy@n 0075                             strncpy@s 0074  
                        _return_time 0034                 ?_read_digital_keypad 0070  
                   write_ds1307@addr 004A                     write_ds1307@data 0049  
              menu_screen@reset_flag 004E                  menu_screen@menu_pos 0030  
      __end_of_ext_eeprom_24C02_read 1410                    check_password@key 004F  
